******************************************************************************
                  TI ARM Linker PC v16.9.4                     
******************************************************************************
>> Linked Mon Oct 02 13:53:58 2017

OUTPUT FILE NAME:   <ECED4402_A1.out>
ENTRY POINT SYMBOL: "_c_int00"  address: 0001c0b5


MEMORY CONFIGURATION

         name            origin    length      used     unused   attr    fill
----------------------  --------  ---------  --------  --------  ----  --------
  FLASH                 00000000   00100000  0002222a  000dddd6  R  X
  SRAM                  20000000   00040000  00011a37  0002e5c9  RW X


SEGMENT ALLOCATION MAP

run origin  load origin   length   init length attrs members
----------  ----------- ---------- ----------- ----- -------
00000000    00000000    00022230   00022230    r-x
  00000000    00000000    00000208   00000208    r-- .intvecs
  00000208    00000208    0001f49a   0001f49a    r-x .text
  0001f6a8    0001f6a8    00002710   00002710    r-- .const
  00021db8    00021db8    00000008   00000008    r-- .init_array
  00021dc0    00021dc0    00000470   00000470    r-- .cinit
20000000    20000000    00011a37   00000000    rw-
  20000000    20000000    00010000   00000000    rw- .sysmem
  20010000    20010000    000013b0   00000000    rw- .data
  200113b0    200113b0    00000400   00000000    rw- .stack
  200117b0    200117b0    00000287   00000000    rw- .bss


SECTION ALLOCATION MAP

 output                                  attributes/
section   page    origin      length       input sections
--------  ----  ----------  ----------   ----------------
.intvecs   0    00000000    00000208     
                  00000000    00000208     tm4c1294ncpdt_startup_ccs.obj (.intvecs)

.text      0    00000208    0001f49a     
                  00000208    00007af0     rtsv7M4_T_le_v4SPD16_eabi.lib : unified_locale.obj (.text)
                  00007cf8    0000113e                                   : _printfi.obj (.text)
                  00008e36    00000002                                   : unified_locale.obj (.text:_ZNKSt8messagesIcE8do_closeEi)
                  00008e38    00000898                                   : _scanfi.obj (.text)
                  000096d0    00000714                                   : unified_locale.obj (.text:_ZNSt4priv14__money_do_putIwSt19ostreambuf_iteratorIwSt11char_traitsIwEESbIwS3_SaIwEENS_16__basic_iostringIwEEEET0_S9_bRSt8ios_baseT_RKT2_bPT1_)
                  00009de4    00000710                                   : unified_locale.obj (.text:_ZNSt4priv14__money_do_putIwSt19ostreambuf_iteratorIwSt11char_traitsIwEESbIwS3_SaIwEES6_EET0_S7_bRSt8ios_baseT_RKT2_bPT1_)
                  0000a4f4    0000069c                                   : unified_locale.obj (.text:_ZNSt4priv14__money_do_putIcSt19ostreambuf_iteratorIcSt11char_traitsIcEESsSsEET0_S5_bRSt8ios_baseT_RKT2_bPT1_)
                  0000ab90    00000686                                   : unified_locale.obj (.text:_ZNSt4priv14__money_do_putIcSt19ostreambuf_iteratorIcSt11char_traitsIcEESsNS_16__basic_iostringIcEEEET0_S7_bRSt8ios_baseT_RKT2_bPT1_)
                  0000b216    00000002                                   : unified_locale.obj (.text:_ZNKSt8messagesIwE8do_closeEi)
                  0000b218    00000628     process_cmd.obj (.text)
                  0000b840    000005d0     rtsv7M4_T_le_v4SPD16_eabi.lib : rtti.obj (.text)
                  0000be10    00000594                                   : unified_locale.obj (.text:_ZNSt4priv14__money_do_getIcSt19istreambuf_iteratorIcSt11char_traitsIcEESsEET0_S5_S5_bRSt8ios_baseRiRT1_RbPT_)
                  0000c3a4    00000588                                   : unified_locale.obj (.text:_ZNSt4priv14__money_do_getIwSt19istreambuf_iteratorIwSt11char_traitsIwEESbIwS3_SaIwEEEET0_S7_S7_bRSt8ios_baseRiRT1_RbPT_)
                  0000c92c    000003d0                                   : memory.obj (.text)
                  0000ccfc    000003b8                                   : _ctype.obj (.text)
                  0000d0b4    0000039c                                   : vec_newdel.obj (.text)
                  0000d450    000002c6                                   : unified_locale.obj (.text:_ZNSt4priv23__copy_integer_and_fillIwSt19ostreambuf_iteratorIwSt11char_traitsIwEEEET0_PKT_iS5_iiS6_S6_S6_)
                  0000d716    000002b2                                   : unified_locale.obj (.text:_ZNSt4priv23__copy_integer_and_fillIcSt19ostreambuf_iteratorIcSt11char_traitsIcEEEET0_PKT_iS5_iiS6_S6_S6_)
                  0000d9c8    000002a8                                   : unified_locale.obj (.text:_ZNSt4priv23__write_formatted_timeTIcNS_10_Time_InfoEEEvRNS_16__basic_iostringIT_EERKSt5ctypeIS3_EccRKT0_PKSt2tm)
                  0000dc70    000002a8                                   : unified_locale.obj (.text:_ZNSt4priv23__write_formatted_timeTIwNS_11_WTime_InfoEEEvRNS_16__basic_iostringIT_EERKSt5ctypeIS3_EccRKT0_PKSt2tm)
                  0000df18    00000268                                   : unified_locale.obj (.text:_ZNSt4priv20__get_monetary_valueISt19istreambuf_iteratorIcSt11char_traitsIcEESt20back_insert_iteratorISsEcEEbRT_S7_T0_RKSt5ctypeIT1_ESB_iSB_RKSsRb)
                  0000e180    00000266                                   : unified_locale.obj (.text:_ZNSt4priv20__get_monetary_valueISt19istreambuf_iteratorIwSt11char_traitsIwEESt20back_insert_iteratorISbIwS3_SaIwEEEwEEbRT_S9_T0_RKSt5ctypeIT1_ESD_iSD_RKSsRb)
                  0000e3e6    00000002                                   : unified_locale.obj (.text:_ZNSt15basic_streambufIwSt11char_traitsIwEE5imbueERKSt6locale)
                  0000e3e8    00000248                                   : unified_locale.obj (.text:_ZNSt4priv20__get_formatted_timeISt19istreambuf_iteratorIcSt11char_traitsIcEEcNS_10_Time_InfoEEEPKcT_S8_S7_S7_PT0_RKT1_RKSt8ios_baseRiPSt2tm)
                  0000e630    0000023c                                   : unified_locale.obj (.text:_ZNSt4priv20__get_formatted_timeISt19istreambuf_iteratorIwSt11char_traitsIwEEwNS_11_WTime_InfoEEEPKcT_S8_S7_S7_PT0_RKT1_RKSt8ios_baseRiPSt2tm)
                  0000e86c    0000023c                                   : strtod.obj (.text)
                  0000eaa8    00000236                                   : unified_locale.obj (.text:_ZNSt4priv12__read_floatISt19istreambuf_iteratorIwSt11char_traitsIwEEwEEbRNS_16__basic_iostringIcEERT_S9_RKSt5ctypeIT0_ERKSt8numpunctISB_E)
                  0000ecde    0000022c                                   : unified_locale.obj (.text:_ZNSt4priv12__read_floatISt19istreambuf_iteratorIcSt11char_traitsIcEEcEEbRNS_16__basic_iostringIcEERT_S9_RKSt5ctypeIT0_ERKSt8numpunctISB_E)
                  0000ef0a    0000021e                                   : ll_div_t2.obj (.text)
                  0000f128    00000216                                   : unified_locale.obj (.text:_ZNSt13basic_filebufIwSt11char_traitsIwEE7seekoffElii)
                  0000f33e    00000210                                   : unified_locale.obj (.text:_ZNSt13basic_filebufIcSt11char_traitsIcEE7seekoffElii)
                  0000f54e    00000206                                   : unified_locale.obj (.text:_ZNSt4priv21__copy_float_and_fillIwSt19ostreambuf_iteratorIwSt11char_traitsIwEEEET0_PKT_S8_S5_iiS6_S6_S6_)
                  0000f754    00000202                                   : unified_locale.obj (.text:_ZNSt4priv21__copy_float_and_fillIcSt19ostreambuf_iteratorIcSt11char_traitsIcEEEET0_PKT_S8_S5_iiS6_S6_S6_)
                  0000f956    000001f4                                   : ull_div_t2.obj (.text)
                  0000fb4a    00000002                                   : unified_locale.obj (.text:_ZNSt15basic_streambufIwSt11char_traitsIwEE6setbufEPwi)
                  0000fb4c    000001ec     main.obj (.text)
                  0000fd38    000001dc     rtsv7M4_T_le_v4SPD16_eabi.lib : strtoll.obj (.text)
                  0000ff14    000001d4                                   : unified_locale.obj (.text:_ZNSt4priv13__do_put_boolIwSt19ostreambuf_iteratorIwSt11char_traitsIwEEEET0_S5_RSt8ios_baseT_b)
                  000100e8    000001d4                                   : unified_locale.obj (.text:_ZNSt4priv13__get_integerISt19istreambuf_iteratorIcSt11char_traitsIcEEycEEbRT_S6_iRT0_ibT1_RKSsRKSt12__false_type)
                  000102bc    000001d4                                   : unified_locale.obj (.text:_ZNSt4priv13__get_integerISt19istreambuf_iteratorIwSt11char_traitsIwEEywEEbRT_S6_iRT0_ibT1_RKSsRKSt12__false_type)
                  00010490    000001cc                                   : unified_locale.obj (.text:_ZNSt4priv13__do_put_boolIcSt19ostreambuf_iteratorIcSt11char_traitsIcEEEET0_S5_RSt8ios_baseT_b)
                  0001065c    000001c8                                   : wctype.obj (.text)
                  00010824    000001c4                                   : fopen.obj (.text)
                  000109e8    000001b6                                   : fd_add_t2.obj (.text)
                  00010b9e    000001a4     clock.obj (.text:_ZNSo14_M_put_nowidenEPKc)
                  00010d42    000001a4     clock.obj (.text:_ZNSt15basic_stringbufIcSt11char_traitsIcESaIcEE7seekoffElii)
                  00010ee6    00000002     rtsv7M4_T_le_v4SPD16_eabi.lib : unified_locale.obj (.text:_ZNSt4priv6__lessIjEENS_8_ti_lessIT_EEPS2_)
                  00010ee8    000001a2     clock.obj (.text)
                  0001108a    00000196     clock.obj (.text:_ZStrsIcSt11char_traitsIcESaIcEERSt13basic_istreamIT_T0_ES7_RSbIS4_S5_T1_E)
                  00011220    00000194     uart.obj (.text)
                  000113b4    00000178     rtsv7M4_T_le_v4SPD16_eabi.lib : unified_locale.obj (.text:_ZNSt4priv13__get_integerIPcecEEbRT_S3_iRT0_ibT1_RKSsRKSt12__false_type)
                  0001152c    00000178                                   : unified_locale.obj (.text:_ZNSt4priv13__get_integerIPwewEEbRT_S3_iRT0_ibT1_RKSsRKSt12__false_type)
                  000116a4    00000174                                   : unified_locale.obj (.text:_ZNSt4priv13__get_integerISt19istreambuf_iteratorIcSt11char_traitsIcEExcEEbRT_S6_iRT0_ibT1_RKSsRKSt11__true_type)
                  00011818    00000174                                   : unified_locale.obj (.text:_ZNSt4priv13__get_integerISt19istreambuf_iteratorIwSt11char_traitsIwEExwEEbRT_S6_iRT0_ibT1_RKSsRKSt11__true_type)
                  0001198c    0000016c                                   : fwrite.obj (.text)
                  00011af8    0000015c                                   : unified_locale.obj (.text:_ZNSt4priv16__do_get_integerISt19istreambuf_iteratorIcSt11char_traitsIcEEycEET_RS5_S6_RSt8ios_baseRiRT0_PT1_)
                  00011c54    0000015c                                   : unified_locale.obj (.text:_ZNSt4priv16__do_get_integerISt19istreambuf_iteratorIwSt11char_traitsIwEEywEET_RS5_S6_RSt8ios_baseRiRT0_PT1_)
                  00011db0    0000015c                                   : strtoull.obj (.text)
                  00011f0c    00000158                                   : unified_locale.obj (.text:_ZNSt9hashtableISt4pairIKSsS0_IPvjEESsSt4hashISsENSt4priv15_HashMapTraitsTIS4_EENS7_10_Select1stIS4_EESt8equal_toISsESaIS4_EE9_M_rehashEj)
                  00012064    00000144                                   : unified_locale.obj (.text:_ZNSt4priv18__do_get_alphaboolISt19istreambuf_iteratorIwSt11char_traitsIwEEwEET_RS5_S6_RSt8ios_baseRiRbPT0_)
                  000121a8    00000142     clock.obj (.text:_ZNSt15basic_stringbufIcSt11char_traitsIcESaIcEE7seekposESt4fposIiEi)
                  000122ea    00000002     rtsv7M4_T_le_v4SPD16_eabi.lib : unified_locale.obj (.text:_ZNSt7num_getIcSt19istreambuf_iteratorIcSt11char_traitsIcEEED1Ev)
                  000122ec    0000013c                                   : unified_locale.obj (.text:_ZNSt4priv11__put_floatISt19ostreambuf_iteratorIwSt11char_traitsIwEEEET_RNS_16__basic_iostringIcEES5_RSt8ios_basewwwjRKSs)
                  00012428    00000138                                   : unified_locale.obj (.text:_ZNSt4priv18__do_get_alphaboolISt19istreambuf_iteratorIcSt11char_traitsIcEEcEET_RS5_S6_RSt8ios_baseRiRbPT0_)
                  00012560    00000136     clock.obj (.text:_ZNSt15basic_stringbufIcSt11char_traitsIcESaIcEE6xsputnEPKci)
                  00012696    00000136     rtsv7M4_T_le_v4SPD16_eabi.lib : fd_div_t2.obj (.text)
                  000127cc    00000134                                   : fputs.obj (.text)
                  00012900    00000134                                   : strtol.obj (.text)
                  00012a34    0000012e                                   : unified_locale.obj (.text:_ZNSt4priv18__get_base_or_zeroISt19istreambuf_iteratorIcSt11char_traitsIcEEcEEiRT_S6_iRKSt5ctypeIT0_E)
                  00012b62    0000012e                                   : unified_locale.obj (.text:_ZNSt4priv18__get_base_or_zeroISt19istreambuf_iteratorIwSt11char_traitsIwEEwEEiRT_S6_iRKSt5ctypeIT0_E)
                  00012c90    0000012c                                   : unified_locale.obj (.text:_ZNKSt7num_putIcSt19ostreambuf_iteratorIcSt11char_traitsIcEEE6do_putES3_RSt8ios_basecPKv)
                  00012dbc    0000012c                                   : unified_locale.obj (.text:_ZNKSt7num_putIwSt19ostreambuf_iteratorIwSt11char_traitsIwEEE6do_putES3_RSt8ios_basewPKv)
                  00012ee8    0000012c                                   : unified_locale.obj (.text:_ZNSt9hashtableISt4pairIKiSt6localeEiSt4hashIiENSt4priv15_HashMapTraitsTIS3_EENS6_10_Select1stIS3_EESt8equal_toIiESaIS3_EE9_M_rehashEj)
                  00013014    00000128                                   : unified_locale.obj (.text:_ZNSt4priv13__put_integerISt19ostreambuf_iteratorIwSt11char_traitsIwEEEET_PcS6_S5_RSt8ios_baseiw)
                  0001313c    00000126     clock.obj (.text:_ZNSt15basic_stringbufIcSt11char_traitsIcESaIcEE10_M_xsputncEci)
                  00013262    00000120     rtsv7M4_T_le_v4SPD16_eabi.lib : unified_locale.obj (.text:_ZNSt4priv24__write_integer_backwardIlEEPcS1_iT_)
                  00013382    0000011e                                   : unified_locale.obj (.text:_ZNSt4priv13__get_integerISt19istreambuf_iteratorIcSt11char_traitsIcEElcEEbRT_S6_iRT0_ibT1_RKSsRKSt11__true_type)
                  000134a0    0000011e                                   : unified_locale.obj (.text:_ZNSt4priv13__get_integerISt19istreambuf_iteratorIwSt11char_traitsIwEElwEEbRT_S6_iRT0_ibT1_RKSsRKSt11__true_type)
                  000135be    00000114                                   : unified_locale.obj (.text:_ZNSt4priv13__get_integerISt19istreambuf_iteratorIcSt11char_traitsIcEEtcEEbRT_S6_iRT0_ibT1_RKSsRKSt12__false_type)
                  000136d2    00000114                                   : unified_locale.obj (.text:_ZNSt4priv13__get_integerISt19istreambuf_iteratorIwSt11char_traitsIwEEtwEEbRT_S6_iRT0_ibT1_RKSsRKSt12__false_type)
                  000137e6    00000002                                   : unified_locale.obj (.text:_ZNSt7num_getIwSt19istreambuf_iteratorIwSt11char_traitsIwEEED1Ev)
                  000137e8    00000114                                   : strtoul.obj (.text)
                  000138fc    00000110     clock.obj (.text:_ZNSt15basic_stringbufIcSt11char_traitsIcESaIcEE8overflowEi)
                  00013a0c    0000010c     rtsv7M4_T_le_v4SPD16_eabi.lib : unified_locale.obj (.text:_ZNSt4priv13__get_integerISt19istreambuf_iteratorIcSt11char_traitsIcEEicEEbRT_S6_iRT0_ibT1_RKSsRKSt12__false_type)
                  00013b18    0000010c                                   : unified_locale.obj (.text:_ZNSt4priv13__get_integerISt19istreambuf_iteratorIcSt11char_traitsIcEEjcEEbRT_S6_iRT0_ibT1_RKSsRKSt12__false_type)
                  00013c24    0000010c                                   : unified_locale.obj (.text:_ZNSt4priv13__get_integerISt19istreambuf_iteratorIcSt11char_traitsIcEEmcEEbRT_S6_iRT0_ibT1_RKSsRKSt12__false_type)
                  00013d30    0000010c                                   : unified_locale.obj (.text:_ZNSt4priv13__get_integerISt19istreambuf_iteratorIwSt11char_traitsIwEEiwEEbRT_S6_iRT0_ibT1_RKSsRKSt12__false_type)
                  00013e3c    0000010c                                   : unified_locale.obj (.text:_ZNSt4priv13__get_integerISt19istreambuf_iteratorIwSt11char_traitsIwEEjwEEbRT_S6_iRT0_ibT1_RKSsRKSt12__false_type)
                  00013f48    0000010c                                   : unified_locale.obj (.text:_ZNSt4priv13__get_integerISt19istreambuf_iteratorIwSt11char_traitsIwEEmwEEbRT_S6_iRT0_ibT1_RKSsRKSt12__false_type)
                  00014054    0000010c                                   : unified_locale.obj (.text:_ZNSt9hashtableISt4pairIKiSt6localeEiSt4hashIiENSt4priv15_HashMapTraitsTIS3_EENS6_10_Select1stIS3_EESt8equal_toIiESaIS3_EE5eraseERS1_)
                  00014160    00000104                                   : unified_locale.obj (.text:_ZNSt4priv14__do_put_floatIwSt19ostreambuf_iteratorIwSt11char_traitsIwEEeEET0_S5_RSt8ios_baseT_T1_)
                  00014264    00000100                                   : unified_locale.obj (.text:_ZNSt4priv14__do_put_floatIcSt19ostreambuf_iteratorIcSt11char_traitsIcEEdEET0_S5_RSt8ios_baseT_T1_)
                  00014364    00000100                                   : unified_locale.obj (.text:_ZNSt4priv14__do_put_floatIcSt19ostreambuf_iteratorIcSt11char_traitsIcEEeEET0_S5_RSt8ios_baseT_T1_)
                  00014464    00000100                                   : unified_locale.obj (.text:_ZNSt4priv14__do_put_floatIwSt19ostreambuf_iteratorIwSt11char_traitsIwEEdEET0_S5_RSt8ios_baseT_T1_)
                  00014564    00000100     clock.obj (.text:_ZNSt4priv9__put_numIcSt11char_traitsIcElEERSt13basic_ostreamIT_T0_ES7_T1_)
                  00014664    000000fc     rtsv7M4_T_le_v4SPD16_eabi.lib : unified_locale.obj (.text:_ZNSt4priv24__write_integer_backwardIxEEPcS1_iT_)
                  00014760    000000fc                                   : fd_mul_t2.obj (.text)
                  0001485c    000000fc                                   : s_scalbn.obj (.text)
                  00014958    000000f4                                   : unified_locale.obj (.text:_ZNSt4priv13__put_integerISt19ostreambuf_iteratorIcSt11char_traitsIcEEEET_PcS6_S5_RSt8ios_baseic)
                  00014a4c    000000f4                                   : unified_locale.obj (.text:_ZNSt4priv16__do_get_integerISt19istreambuf_iteratorIcSt11char_traitsIcEExcEET_RS5_S6_RSt8ios_baseRiRT0_PT1_)
                  00014b40    000000f4                                   : unified_locale.obj (.text:_ZNSt4priv16__do_get_integerISt19istreambuf_iteratorIwSt11char_traitsIwEExwEET_RS5_S6_RSt8ios_baseRiRT0_PT1_)
                  00014c34    000000f4                                   : unified_locale.obj (.text:_ZNSt9hashtableISt4pairIKSsS0_IPvjEESsSt4hashISsENSt4priv15_HashMapTraitsTIS4_EENS7_10_Select1stIS4_EESt8equal_toISsESaIS4_EE5eraseENS7_12_Ht_iteratorINS7_15_Slist_iteratorIS4_St16_Nonconst_traitsIS4_EEENS7_28_ConstNonLocalHashMapTraitsTIS4_EEEE)
                  00014d28    000000f4                                   : dtor_list.obj (.text)
                  00014e1c    000000f0                                   : unified_locale.obj (.text:_ZNSt4priv16__do_get_integerISt19istreambuf_iteratorIcSt11char_traitsIcEEjcEET_RS5_S6_RSt8ios_baseRiRT0_PT1_)
                  00014f0c    000000f0                                   : unified_locale.obj (.text:_ZNSt4priv16__do_get_integerISt19istreambuf_iteratorIcSt11char_traitsIcEElcEET_RS5_S6_RSt8ios_baseRiRT0_PT1_)
                  00014ffc    000000f0                                   : unified_locale.obj (.text:_ZNSt4priv16__do_get_integerISt19istreambuf_iteratorIcSt11char_traitsIcEEmcEET_RS5_S6_RSt8ios_baseRiRT0_PT1_)
                  000150ec    000000f0                                   : unified_locale.obj (.text:_ZNSt4priv16__do_get_integerISt19istreambuf_iteratorIcSt11char_traitsIcEEtcEET_RS5_S6_RSt8ios_baseRiRT0_PT1_)
                  000151dc    000000f0                                   : unified_locale.obj (.text:_ZNSt4priv16__do_get_integerISt19istreambuf_iteratorIwSt11char_traitsIwEEjwEET_RS5_S6_RSt8ios_baseRiRT0_PT1_)
                  000152cc    000000f0                                   : unified_locale.obj (.text:_ZNSt4priv16__do_get_integerISt19istreambuf_iteratorIwSt11char_traitsIwEElwEET_RS5_S6_RSt8ios_baseRiRT0_PT1_)
                  000153bc    000000f0                                   : unified_locale.obj (.text:_ZNSt4priv16__do_get_integerISt19istreambuf_iteratorIwSt11char_traitsIwEEmwEET_RS5_S6_RSt8ios_baseRiRT0_PT1_)
                  000154ac    000000f0                                   : unified_locale.obj (.text:_ZNSt4priv16__do_get_integerISt19istreambuf_iteratorIwSt11char_traitsIwEEtwEET_RS5_S6_RSt8ios_baseRiRT0_PT1_)
                  0001559c    000000ec                                   : unified_locale.obj (.text:_ZNSbIwSt11char_traitsIwENSt4priv20__iostring_allocatorIwEEE10_M_appendTIPKwEERS4_T_S9_RKSt20forward_iterator_tag)
                  00015688    000000ec                                   : unified_locale.obj (.text:_ZNSbIwSt11char_traitsIwENSt4priv20__iostring_allocatorIwEEE13_M_insert_auxEPww)
                  00015774    000000ec                                   : unified_locale.obj (.text:_ZNSs18_M_append_fast_posINSt4priv14__bstr_wrapperIcSt11char_traitsIcESaIcEEENS0_10__bstr_sumIcS3_S4_NS0_14__cstr_wrapperIcEENS0_18__sum_storage_elemIcS3_S4_EENS0_10__on_rightEEESB_EEPcRKNS6_IcS3_S4_T_T0_T1_EESD_jj)
                  00015860    000000ec                                   : fread.obj (.text)
                  0001594c    000000e8                                   : unified_locale.obj (.text:_ZNSt4priv21__copy_grouped_digitsISt19istreambuf_iteratorIwSt11char_traitsIwEEwEEbRT_S5_RNS_16__basic_iostringIcEEPKT0_SA_RKSsRb)
                  00015a34    000000e8                                   : unified_locale.obj (.text:_ZNSt9hashtableISt4pairIKSsS0_IPvjEESsSt4hashISsENSt4priv15_HashMapTraitsTIS4_EENS7_10_Select1stIS4_EESt8equal_toISsESaIS4_EE22insert_unique_noresizeERKS4_)
                  00015b1c    000000e6                                   : unified_locale.obj (.text:_ZNSt13basic_filebufIcSt11char_traitsIcEE16_M_underflow_auxEv)
                  00015c02    00000002                                   : unified_locale.obj (.text:_ZNSt7num_putIcSt19ostreambuf_iteratorIcSt11char_traitsIcEEED1Ev)
                  00015c04    000000e4                                   : unified_locale.obj (.text:_ZNKSt8time_putIwSt19ostreambuf_iteratorIwSt11char_traitsIwEEE6do_putES3_RSt8ios_basewPKSt2tmcc)
                  00015ce8    000000e4                                   : unified_locale.obj (.text:_ZNSbIwSt11char_traitsIwESaIwEE9_M_appendEPKwS4_)
                  00015dcc    000000e4                                   : unified_locale.obj (.text:_ZNSt4priv7__matchISt19istreambuf_iteratorIcSt11char_traitsIcEEPKSsEEjRT_S8_T0_S9_)
                  00015eb0    000000e4                                   : unified_locale.obj (.text:_ZNSt4priv7__matchISt19istreambuf_iteratorIwSt11char_traitsIwEEPKSbIwS3_SaIwEEEEjRT_SA_T0_SB_)
                  00015f94    000000e2                                   : unified_locale.obj (.text:_ZNKSt9money_getIcSt19istreambuf_iteratorIcSt11char_traitsIcEEE6do_getES3_S3_bRSt8ios_baseRiRe)
                  00016076    00000002                                   : unified_locale.obj (.text:_ZNSt7num_putIwSt19ostreambuf_iteratorIwSt11char_traitsIwEEED1Ev)
                  00016078    000000e0                                   : unified_locale.obj (.text:_ZNKSt8time_putIcSt19ostreambuf_iteratorIcSt11char_traitsIcEEE6do_putES3_RSt8ios_basecPKSt2tmcc)
                  00016158    000000de                                   : unified_locale.obj (.text:_ZNSt13basic_filebufIwSt11char_traitsIwEE16_M_underflow_auxEv)
                  00016236    000000de                                   : _ctype.obj (.text:_ZSt7find_ifIPKwSt12unary_negateISt16_Ctype_w_is_maskEET_S5_S5_T0_)
                  00016314    000000dc                                   : unified_locale.obj (.text:_ZNSt13basic_filebufIcSt11char_traitsIcEE8overflowEi)
                  000163f0    000000dc     queue.obj (.text)
                  000164cc    000000dc     rtsv7M4_T_le_v4SPD16_eabi.lib : setvbuf.obj (.text)
                  000165a8    000000d6     clock.obj (.text:_ZNSt15basic_stringbufIcSt11char_traitsIcESaIcEE6setbufEPci)
                  0001667e    000000d6     rtsv7M4_T_le_v4SPD16_eabi.lib : unified_locale.obj (.text:_ZNSt4priv21__copy_grouped_digitsISt19istreambuf_iteratorIcSt11char_traitsIcEEcEEbRT_S5_RNS_16__basic_iostringIcEEPKT0_SA_RKSsRb)
                  00016754    000000d4                                   : unified_locale.obj (.text:_ZNKSt9money_getIwSt19istreambuf_iteratorIwSt11char_traitsIwEEE6do_getES3_S3_bRSt8ios_baseRiRe)
                  00016828    000000d4                                   : unified_locale.obj (.text:_ZNSt4priv12_String_baseIwSaIwEE7_M_swapERS2_)
                  000168fc    000000d4                                   : unified_locale.obj (.text:_ZNSt4priv14__do_get_floatISt19istreambuf_iteratorIcSt11char_traitsIcEEdcEET_RS5_S6_RSt8ios_baseRiRT0_PT1_)
                  000169d0    000000d4                                   : unified_locale.obj (.text:_ZNSt4priv14__do_get_floatISt19istreambuf_iteratorIcSt11char_traitsIcEEecEET_RS5_S6_RSt8ios_baseRiRT0_PT1_)
                  00016aa4    000000d4                                   : unified_locale.obj (.text:_ZNSt4priv14__do_get_floatISt19istreambuf_iteratorIcSt11char_traitsIcEEfcEET_RS5_S6_RSt8ios_baseRiRT0_PT1_)
                  00016b78    000000d4                                   : unified_locale.obj (.text:_ZNSt4priv14__do_get_floatISt19istreambuf_iteratorIwSt11char_traitsIwEEdwEET_RS5_S6_RSt8ios_baseRiRT0_PT1_)
                  00016c4c    000000d4                                   : unified_locale.obj (.text:_ZNSt4priv14__do_get_floatISt19istreambuf_iteratorIwSt11char_traitsIwEEewEET_RS5_S6_RSt8ios_baseRiRT0_PT1_)
                  00016d20    000000d4                                   : unified_locale.obj (.text:_ZNSt4priv14__do_get_floatISt19istreambuf_iteratorIwSt11char_traitsIwEEfwEET_RS5_S6_RSt8ios_baseRiRT0_PT1_)
                  00016df4    000000d4                                   : unified_locale.obj (.text:_ZNSt6vectorIPNSt6locale5facetESaIS2_EE18_M_fill_insert_auxEPS2_jRKS2_RKSt12__false_type)
                  00016ec8    000000d4     clock.obj (.text:_ZSt18_M_ignore_bufferedIcSt11char_traitsIcENSt4priv14_Is_not_wspaceIS1_EENS2_20_Scan_for_not_wspaceIS1_EEEvPSt13basic_istreamIT_T0_EPSt15basic_streambufIS8_S9_ET1_T2_bb)
                  00016f9c    000000d2     rtsv7M4_T_le_v4SPD16_eabi.lib : unified_locale.obj (.text:_ZNSt4priv24__write_integer_backwardIyEEPcS1_iT_)
                  0001706e    000000ce                                   : unified_locale.obj (.text:_ZNSbIcSt11char_traitsIcENSt4priv20__iostring_allocatorIcEEE9_M_appendEPKcS6_)
                  0001713c    000000cc                                   : unified_locale.obj (.text:_ZNSt13basic_filebufIwSt11char_traitsIwEE8overflowEi)
                  00017208    000000cc                                   : sscanf.obj (.text)
                  000172d4    000000ca                                   : unified_locale.obj (.text:_ZNSbIcSt11char_traitsIcENSt4priv20__iostring_allocatorIcEEE13_M_insert_auxEPcc)
                  0001739e    000000c8                                   : unified_locale.obj (.text:_ZNSbIcSt11char_traitsIcENSt4priv20__iostring_allocatorIcEEE10_M_appendTIPKcEERS4_T_S9_RKSt20forward_iterator_tag)
                  00017466    000000c8     clock.obj (.text:_ZNSs10_M_appendTIPKcEERSsT_S3_RKSt20forward_iterator_tag)
                  0001752e    000000c8     clock.obj (.text:_ZNSs9_M_appendEPKcS0_)
                  000175f6    00000002     rtsv7M4_T_le_v4SPD16_eabi.lib : unified_locale.obj (.text:_ZNSt8messagesIcED1Ev)
                  000175f8    000000c8                                   : unified_locale.obj (.text:_ZNSt6vectorIPNSt6locale5facetESaIS2_EEaSERKS4_)
                  000176c0    000000c8                                   : fflush.obj (.text)
                  00017788    000000c6                                   : unified_locale.obj (.text:_ZNSt6vectorIPNSt6locale5facetESaIS2_EE14_M_fill_insertEPS2_jRKS2_)
                  0001784e    00000002                                   : unified_locale.obj (.text:_ZNSt8messagesIwED1Ev)
                  00017850    000000c4                                   : unified_locale.obj (.text:_ZNSt6vectorIPNSt4priv16_Slist_node_baseESaIS2_EE14_M_fill_assignEjRKS2_)
                  00017914    000000c4                                   : unified_locale.obj (.text:_ZNSt9hashtableISt4pairIKSsS0_IPvjEESsSt4hashISsENSt4priv15_HashMapTraitsTIS4_EENS7_10_Select1stIS4_EESt8equal_toISsESaIS4_EE9_M_reduceEv)
                  000179d8    000000c4                                   : unified_locale.obj (.text:_ZNSt9hashtableISt4pairIKiSt6localeEiSt4hashIiENSt4priv15_HashMapTraitsTIS3_EENS6_10_Select1stIS3_EESt8equal_toIiESaIS3_EE9_M_reduceEv)
                  00017a9c    000000c2     clock.obj (.text:_ZNSi18_M_skip_whitespaceEb)
                  00017b5e    000000c0     rtsv7M4_T_le_v4SPD16_eabi.lib : unified_locale.obj (.text:_ZNSt4priv24__write_integer_backwardImEEPcS1_iT_)
                  00017c1e    000000c0     clock.obj (.text:_ZSt14_M_init_noskipIcSt11char_traitsIcEEbRSt13basic_istreamIT_T0_E)
                  00017cde    00000002     rtsv7M4_T_le_v4SPD16_eabi.lib : unified_locale.obj (.text:_ZNSt9money_getIcSt19istreambuf_iteratorIcSt11char_traitsIcEEED1Ev)
                  00017ce0    000000bc                                   : open.obj (.text)
                  00017d9c    000000bc                                   : typeinfo_.obj (.text)
                  00017e58    000000b8                                   : unified_locale.obj (.text:_ZNSbIwSt11char_traitsIwESaIwEE6assignEjw)
                  00017f10    000000b4                                   : unified_locale.obj (.text:_ZNSt9hashtableISt4pairIKiSt6localeEiSt4hashIiENSt4priv15_HashMapTraitsTIS3_EENS6_10_Select1stIS3_EESt8equal_toIiESaIS3_EE22insert_unique_noresizeERKS3_)
                  00017fc4    000000b0                                   : unified_locale.obj (.text:_ZNKSt9money_putIwSt19ostreambuf_iteratorIwSt11char_traitsIwEEE6do_putES3_bRSt8ios_basewe)
                  00018074    000000b0                                   : unified_locale.obj (.text:_ZNSs6assignEjc)
                  00018124    000000b0     clock.obj (.text:_ZNSt15basic_streambufIcSt11char_traitsIcEE6xsputnEPKci)
                  000181d4    000000ac     rtsv7M4_T_le_v4SPD16_eabi.lib : _io_perm.obj (.text)
                  00018280    000000aa     clock.obj (.text:_ZNSt15basic_streambufIcSt11char_traitsIcEE6xsgetnEPci)
                  0001832a    000000aa     rtsv7M4_T_le_v4SPD16_eabi.lib : unified_locale.obj (.text:_ZSt7find_ifIPKwSt12unary_negateINSt4priv23_Ctype_byname_w_is_maskEEET_S6_S6_T0_)
                  000183d4    000000a8     clock.obj (.text:_ZNSt4priv12__init_bostrIcSt11char_traitsIcEEEbRSt13basic_ostreamIT_T0_E)
                  0001847c    000000a6     clock.obj (.text:_ZNSt15basic_streambufIcSt11char_traitsIcEE10_M_xsputncEci)
                  00018522    000000a2     rtsv7M4_T_le_v4SPD16_eabi.lib : unified_locale.obj (.text:_ZNKSt9money_putIcSt19ostreambuf_iteratorIcSt11char_traitsIcEEE6do_putES3_bRSt8ios_basece)
                  000185c4    000000a0                                   : unified_locale.obj (.text:_ZNSt6vectorIPNSt4priv16_Slist_node_baseESaIS2_EE7reserveEj)
                  00018664    000000a0                                   : _bufread.obj (.text)
                  00018704    0000009e                                   : unified_locale.obj (.text:_ZNSt4priv12_String_baseIcSaIcEE7_M_swapERS2_)
                  000187a2    0000009e     clock.obj (.text:_ZSt20_M_ignore_unbufferedIcSt11char_traitsIcENSt4priv14_Is_not_wspaceIS1_EEEvPSt13basic_istreamIT_T0_EPSt15basic_streambufIS6_S7_ET1_bb)
                  00018840    0000009e     rtsv7M4_T_le_v4SPD16_eabi.lib : unified_locale.obj (.text:_ZSt7find_ifIPcNSt4priv8GroupPosEET_S3_S3_T0_)
                  000188de    00000002                                   : unified_locale.obj (.text:_ZNSt9money_getIwSt19istreambuf_iteratorIwSt11char_traitsIwEEED1Ev)
                  000188e0    0000009c                                   : unified_locale.obj (.text:_ZNSt6vectorIPNSt6locale5facetESaIS2_EE7reserveEj)
                  0001897c    0000009c                                   : memcpy_t2.obj (.text)
                  00018a18    00000098     clock.obj (.text:_ZNSt15basic_stringbufIcSt11char_traitsIcESaIcEE9pbackfailEi)
                  00018ab0    00000098     rtsv7M4_T_le_v4SPD16_eabi.lib : unified_locale.obj (.text:_ZNSt4priv18__get_money_digitsIwEEvRNS_16__basic_iostringIT_EERSt8ios_basee)
                  00018b48    00000098     clock.obj (.text:_ZSt12_M_init_skipIcSt11char_traitsIcEEbRSt13basic_istreamIT_T0_E)
                  00018be0    00000098     rtsv7M4_T_le_v4SPD16_eabi.lib : fclose.obj (.text)
                  00018c78    00000098                                   : fputc.obj (.text)
                  00018d10    00000094                                   : unified_locale.obj (.text:_ZNSt13basic_filebufIcSt11char_traitsIcEE9pbackfailEi)
                  00018da4    00000094                                   : unified_locale.obj (.text:_ZNSt13basic_filebufIwSt11char_traitsIwEE9pbackfailEi)
                  00018e38    00000094                                   : unified_locale.obj (.text:_ZNSt15time_get_bynameIcSt19istreambuf_iteratorIcSt11char_traitsIcEEED0Ev)
                  00018ecc    00000094                                   : unified_locale.obj (.text:_ZNSt15time_get_bynameIwSt19istreambuf_iteratorIwSt11char_traitsIwEEED0Ev)
                  00018f60    00000094                                   : unified_locale.obj (.text:_ZNSt15time_put_bynameIcSt19ostreambuf_iteratorIcSt11char_traitsIcEEED0Ev)
                  00018ff4    00000094                                   : unified_locale.obj (.text:_ZNSt15time_put_bynameIwSt19ostreambuf_iteratorIwSt11char_traitsIwEEED0Ev)
                  00019088    00000094                                   : unified_locale.obj (.text:_ZNSt4priv13__copy_digitsISt19istreambuf_iteratorIwSt11char_traitsIwEEwEEbRT_S5_RNS_16__basic_iostringIcEEPKT0_)
                  0001911c    00000094                                   : unified_locale.obj (.text:_ZNSt8time_getIcSt19istreambuf_iteratorIcSt11char_traitsIcEEED0Ev)
                  000191b0    00000094                                   : unified_locale.obj (.text:_ZNSt8time_getIwSt19istreambuf_iteratorIwSt11char_traitsIwEEED0Ev)
                  00019244    00000094                                   : unified_locale.obj (.text:_ZNSt8time_putIcSt19ostreambuf_iteratorIcSt11char_traitsIcEEED0Ev)
                  000192d8    00000094                                   : unified_locale.obj (.text:_ZNSt8time_putIwSt19ostreambuf_iteratorIwSt11char_traitsIwEEED0Ev)
                  0001936c    00000094                                   : snprintf.obj (.text)
                  00019400    00000092                                   : unified_locale.obj (.text:_ZSt7find_ifIPKwNSt4priv23_Ctype_byname_w_is_maskEET_S4_S4_T0_)
                  00019492    00000090                                   : unified_locale.obj (.text:_ZNSt4priv11__put_floatISt19ostreambuf_iteratorIcSt11char_traitsIcEEEET_RNS_16__basic_iostringIcEES5_RSt8ios_basecccjRKSs)
                  00019522    00000002                                   : unified_locale.obj (.text:_ZNSt9money_putIcSt19ostreambuf_iteratorIcSt11char_traitsIcEEED1Ev)
                  00019524    00000090                                   : fgetc.obj (.text)
                  000195b4    0000008e                                   : unified_locale.obj (.text:_ZNSt13basic_filebufIcSt11char_traitsIcEE5closeEv)
                  00019642    00000002                                   : unified_locale.obj (.text:_ZNSt9money_putIwSt19ostreambuf_iteratorIwSt11char_traitsIwEEED1Ev)
                  00019644    0000008c                                   : unified_locale.obj (.text:_ZNSt15time_get_bynameIcSt19istreambuf_iteratorIcSt11char_traitsIcEEED1Ev)
                  000196d0    0000008c                                   : unified_locale.obj (.text:_ZNSt15time_get_bynameIwSt19istreambuf_iteratorIwSt11char_traitsIwEEED1Ev)
                  0001975c    0000008c                                   : unified_locale.obj (.text:_ZNSt15time_put_bynameIcSt19ostreambuf_iteratorIcSt11char_traitsIcEEED1Ev)
                  000197e8    0000008c                                   : unified_locale.obj (.text:_ZNSt15time_put_bynameIwSt19ostreambuf_iteratorIwSt11char_traitsIwEEED1Ev)
                  00019874    0000008c                                   : unified_locale.obj (.text:_ZNSt4priv11__copy_signISt19istreambuf_iteratorIcSt11char_traitsIcEEcEET_S5_S5_RNS_16__basic_iostringIcEET0_S9_)
                  00019900    0000008c                                   : unified_locale.obj (.text:_ZNSt4priv11__copy_signISt19istreambuf_iteratorIwSt11char_traitsIwEEwEET_S5_S5_RNS_16__basic_iostringIcEET0_S9_)
                  0001998c    0000008c                                   : unified_locale.obj (.text:_ZNSt8time_getIcSt19istreambuf_iteratorIcSt11char_traitsIcEEED1Ev)
                  00019a18    0000008c                                   : unified_locale.obj (.text:_ZNSt8time_getIwSt19istreambuf_iteratorIwSt11char_traitsIwEEED1Ev)
                  00019aa4    0000008c                                   : unified_locale.obj (.text:_ZNSt8time_putIcSt19ostreambuf_iteratorIcSt11char_traitsIcEEED1Ev)
                  00019b30    0000008c                                   : unified_locale.obj (.text:_ZNSt8time_putIwSt19ostreambuf_iteratorIwSt11char_traitsIwEEED1Ev)
                  00019bbc    00000088     clock.obj (.text:_ZNSdC2EPSt15basic_streambufIcSt11char_traitsIcEE)
                  00019c44    00000088     rtsv7M4_T_le_v4SPD16_eabi.lib : unified_locale.obj (.text:_ZNSt13basic_filebufIwSt11char_traitsIwEED1Ev)
                  00019ccc    00000088                                   : unified_locale.obj (.text:_ZStplIcSt11char_traitsIcESaIcEENSt4priv10__bstr_sumIT_T0_T1_NS3_14__bstr_wrapperIS5_S6_S7_EENS4_IS5_S6_S7_NS3_14__cstr_wrapperIS5_EENS3_18__sum_storage_elemIS5_S6_S7_EENS3_10__on_rightEEESE_EERKSbIS5_S6_S7_EPKS5_)
                  00019d54    00000086                                   : unified_locale.obj (.text:_ZNSt4priv13__copy_digitsISt19istreambuf_iteratorIcSt11char_traitsIcEEcEEbRT_S5_RNS_16__basic_iostringIcEEPKT0_)
                  00019dda    00000086                                   : fd_cmp_t2.obj (.text:__aeabi_cdcmple)
                  00019e60    00000086                                   : fd_cmp_t2.obj (.text:__aeabi_cdrcmple)
                  00019ee6    00000002                                   : i_div0.obj (.text)
                  00019ee8    00000084                                   : unified_locale.obj (.text:_ZNSbIwSt11char_traitsIwENSt4priv20__iostring_allocatorIwEEE6appendEjw)
                  00019f6c    00000084     clock.obj (.text:_ZNSt18basic_stringstreamIcSt11char_traitsIcESaIcEEC2Ei)
                  00019ff0    00000082     clock.obj (.text:_ZNSs6appendEjc)
                  0001a072    00000002     rtsv7M4_T_le_v4SPD16_eabi.lib : l_div0.obj (.text)
                  0001a074    00000080                                   : unified_locale.obj (.text:_ZNSbIwSt11char_traitsIwESaIwEE6appendEjw)
                  0001a0f4    00000080                                   : unified_locale.obj (.text:_ZNSt13basic_filebufIcSt11char_traitsIcEE16_M_setup_codecvtERKSt6localeb)
                  0001a174    00000080                                   : unified_locale.obj (.text:_ZNSt13basic_filebufIwSt11char_traitsIwEE16_M_setup_codecvtERKSt6localeb)
                  0001a1f4    00000080                                   : unified_locale.obj (.text:_ZNSt9hashtableISt4pairIKSsS0_IPvjEESsSt4hashISsENSt4priv15_HashMapTraitsTIS4_EENS7_10_Select1stIS4_EESt8equal_toISsESaIS4_EE18_M_insert_noresizeEjRKS4_)
                  0001a274    00000080                                   : ungetc.obj (.text)
                  0001a2f4    0000007c                                   : unified_locale.obj (.text:_ZNKSt8time_getIcSt19istreambuf_iteratorIcSt11char_traitsIcEEE11do_get_dateES3_S3_RSt8ios_baseRiPSt2tm)
                  0001a370    0000007c                                   : unified_locale.obj (.text:_ZNKSt8time_getIcSt19istreambuf_iteratorIcSt11char_traitsIcEEE11do_get_timeES3_S3_RSt8ios_baseRiPSt2tm)
                  0001a3ec    0000007c                                   : unified_locale.obj (.text:_ZNKSt8time_getIwSt19istreambuf_iteratorIwSt11char_traitsIwEEE11do_get_dateES3_S3_RSt8ios_baseRiPSt2tm)
                  0001a468    0000007c                                   : unified_locale.obj (.text:_ZNKSt8time_getIwSt19istreambuf_iteratorIwSt11char_traitsIwEEE11do_get_timeES3_S3_RSt8ios_baseRiPSt2tm)
                  0001a4e4    0000007c     clock.obj (.text:_ZNSt9basic_iosIcSt11char_traitsIcEE4initEPSt15basic_streambufIcS1_E)
                  0001a560    0000007c     rtsv7M4_T_le_v4SPD16_eabi.lib : unified_locale.obj (.text:_ZNSt9hashtableISt4pairIKiSt6localeEiSt4hashIiENSt4priv15_HashMapTraitsTIS3_EENS6_10_Select1stIS3_EESt8equal_toIiESaIS3_EE18_M_insert_noresizeEjRKS3_)
                  0001a5dc    0000007a     clock.obj (.text:_ZNSs9_M_assignEPKcS0_)
                  0001a656    0000007a     rtsv7M4_T_le_v4SPD16_eabi.lib : memset_t2.obj (.text)
                  0001a6d0    00000078                                   : unified_locale.obj (.text:_ZNSbIwSt11char_traitsIwENSt4priv20__iostring_allocatorIwEEE10_M_reserveEj)
                  0001a748    00000076                                   : unified_locale.obj (.text:_ZNSbIcSt11char_traitsIcENSt4priv20__iostring_allocatorIcEEE6appendEjc)
                  0001a7be    00000076                                   : unified_locale.obj (.text:_ZNSt13basic_filebufIcSt11char_traitsIcEE12_M_seek_initEb)
                  0001a834    00000076                                   : unified_locale.obj (.text:_ZNSt13basic_filebufIwSt11char_traitsIwEE12_M_seek_initEb)
                  0001a8aa    00000002                                   : mpu_init.obj (.text)
                  0001a8ac    00000074                                   : unified_locale.obj (.text:_ZNSt13basic_filebufIcSt11char_traitsIcEEC1Ev)
                  0001a920    00000074                                   : unified_locale.obj (.text:_ZNSt13basic_filebufIwSt11char_traitsIwEEC1Ev)
                  0001a994    00000072                                   : unified_locale.obj (.text:_ZNKSt7num_getIcSt19istreambuf_iteratorIcSt11char_traitsIcEEE6do_getES3_S3_RSt8ios_baseRiRb)
                  0001aa06    00000072                                   : unified_locale.obj (.text:_ZNKSt7num_getIwSt19istreambuf_iteratorIwSt11char_traitsIwEEE6do_getES3_S3_RSt8ios_baseRiRb)
                  0001aa78    00000070                                   : unified_locale.obj (.text:_ZNKSt19istreambuf_iteratorIcSt11char_traitsIcEE5equalERKS2_)
                  0001aae8    00000070                                   : unified_locale.obj (.text:_ZNKSt19istreambuf_iteratorIwSt11char_traitsIwEE5equalERKS2_)
                  0001ab58    00000070                                   : unified_locale.obj (.text:_ZNSt13basic_filebufIcSt11char_traitsIcEE7seekposESt4fposIiEi)
                  0001abc8    00000070                                   : unified_locale.obj (.text:_ZNSt13basic_filebufIwSt11char_traitsIwEE7seekposESt4fposIiEi)
                  0001ac38    00000070                                   : unified_locale.obj (.text:_ZStneIcSt11char_traitsIcEEbRKSt19istreambuf_iteratorIT_T0_ES7_)
                  0001aca8    00000070                                   : unified_locale.obj (.text:_ZStneIwSt11char_traitsIwEEbRKSt19istreambuf_iteratorIT_T0_ES7_)
                  0001ad18    00000070                                   : autoinit.obj (.text)
                  0001ad88    00000070                                   : getdevice.obj (.text)
                  0001adf8    0000006e                                   : unified_locale.obj (.text:_ZNSbIcSt11char_traitsIcENSt4priv20__iostring_allocatorIcEEE9_M_assignEPKcS6_)
                  0001ae66    0000006e                                   : unified_locale.obj (.text:_ZNSt13basic_filebufIwSt11char_traitsIwEE9underflowEv)
                  0001aed4    0000006e                                   : fd_tos_t2.obj (.text)
                  0001af42    00000002                                   : newhandler.obj (.text)
                  0001af44    0000006c                                   : unified_locale.obj (.text:_ZNSbIwSt11char_traitsIwESaIwEE10_M_reserveEj)
                  0001afb0    0000006c     clock.obj (.text:_ZNSiC2EPSt15basic_streambufIcSt11char_traitsIcEE)
                  0001b01c    0000006c     rtsv7M4_T_le_v4SPD16_eabi.lib : hostrename.obj (.text)
                  0001b088    0000006c     systick.obj (.text)
                  0001b0f4    0000006a     rtsv7M4_T_le_v4SPD16_eabi.lib : unified_locale.obj (.text:_ZNKSt8time_getIcSt19istreambuf_iteratorIcSt11char_traitsIcEEE11do_get_yearES3_S3_RSt8ios_baseRiPSt2tm)
                  0001b15e    0000006a                                   : unified_locale.obj (.text:_ZNKSt8time_getIwSt19istreambuf_iteratorIwSt11char_traitsIwEEE11do_get_yearES3_S3_RSt8ios_baseRiPSt2tm)
                  0001b1c8    0000006a                                   : unified_locale.obj (.text:_ZNSt13basic_filebufIwSt11char_traitsIwEE19_M_allocate_buffersEPwi)
                  0001b232    0000006a                                   : unified_locale.obj (.text:_ZSt7find_ifIPKcNSt4priv14_Eq_char_boundISt11char_traitsIcEEEET_S7_S7_T0_)
                  0001b29c    00000068                                   : unified_locale.obj (.text:_ZNSt13basic_filebufIcSt11char_traitsIcEE19_M_allocate_buffersEPci)
                  0001b304    00000068                                   : copy_decompress_lzss.obj (.text:decompress:lzss)
                  0001b36c    00000068                                   : hostlseek.obj (.text)
                  0001b3d4    00000068                                   : trgmsg.obj (.text)
                  0001b43c    00000066                                   : unified_locale.obj (.text:_ZNKSt7num_putIcSt19ostreambuf_iteratorIcSt11char_traitsIcEEE6do_putES3_RSt8ios_basecb)
                  0001b4a2    00000066                                   : unified_locale.obj (.text:_ZNKSt7num_putIwSt19ostreambuf_iteratorIwSt11char_traitsIwEEE6do_putES3_RSt8ios_basewb)
                  0001b508    00000066                                   : unified_locale.obj (.text:_ZNSs18_M_append_fast_posINSt4priv14__cstr_wrapperIcEENS0_18__sum_storage_elemIcSt11char_traitsIcESaIcEEENS0_10__on_rightEEEPcRKNS0_10__bstr_sumIcS5_S6_T_T0_T1_EES9_jj)
                  0001b56e    00000066     process_cmd.obj (.text:_ZNSsC1ERKSsjjRKSaIcE)
                  0001b5d4    00000066     rtsv7M4_T_le_v4SPD16_eabi.lib : unified_locale.obj (.text:_ZNSt15basic_streambufIwSt11char_traitsIwEE6xsgetnEPwi)
                  0001b63a    00000066                                   : unified_locale.obj (.text:_ZNSt15basic_streambufIwSt11char_traitsIwEE6xsputnEPKwi)
                  0001b6a0    00000064     clock.obj (.text:_ZNSoC2EPSt15basic_streambufIcSt11char_traitsIcEE)
                  0001b704    00000064     rtsv7M4_T_le_v4SPD16_eabi.lib : unified_locale.obj (.text:_ZNSt4priv12__get_stringISt19istreambuf_iteratorIcSt11char_traitsIcEEPcEESt4pairIT_bES7_S7_T0_S9_)
                  0001b768    00000064                                   : unified_locale.obj (.text:_ZNSt4priv12__get_stringISt19istreambuf_iteratorIwSt11char_traitsIwEEPwEESt4pairIT_bES7_S7_T0_S9_)
                  0001b7cc    00000064                                   : unified_locale.obj (.text:_ZSt4findIPKwwET_S2_S2_RKT0_)
                  0001b830    00000064                                   : fseek.obj (.text)
                  0001b894    00000064                                   : ftell.obj (.text)
                  0001b8f8    00000064                                   : s_frexp.obj (.text)
                  0001b95c    00000062                                   : unified_locale.obj (.text:_ZNSbIwSt11char_traitsIwESaIwEE9_M_assignEPKwS4_)
                  0001b9be    00000060                                   : unified_locale.obj (.text:_ZNSt4priv10_Stl_primeIbE13_S_prev_sizesEjRPKjS4_)
                  0001ba1e    00000002                                   : startup.obj (.text)
                  0001ba20    00000060                                   : hostopen.obj (.text)
                  0001ba80    00000060                                   : sprintf.obj (.text)
                  0001bae0    0000005e                                   : unified_locale.obj (.text:_ZNSbIcSt11char_traitsIcENSt4priv20__iostring_allocatorIcEEE10_M_reserveEj)
                  0001bb3e    0000005e                                   : unified_locale.obj (.text:_ZNSt15basic_streambufIwSt11char_traitsIwEE10_M_xsputncEwi)
                  0001bb9c    0000005c     clock.obj (.text:_ZNSs20_M_compute_next_sizeEj)
                  0001bbf8    0000005c     rtsv7M4_T_le_v4SPD16_eabi.lib : close.obj (.text)
                  0001bc54    00000058                                   : unified_locale.obj (.text:_ZNKSt9money_getIcSt19istreambuf_iteratorIcSt11char_traitsIcEEE6do_getES3_S3_bRSt8ios_baseRiRSs)
                  0001bcac    00000058                                   : unified_locale.obj (.text:_ZNKSt9money_getIwSt19istreambuf_iteratorIwSt11char_traitsIwEEE6do_getES3_S3_bRSt8ios_baseRiRSbIwS2_SaIwEE)
                  0001bd04    00000058                                   : unified_locale.obj (.text:_ZNSt13basic_filebufIcSt11char_traitsIcEE10_M_unshiftEv)
                  0001bd5c    00000058                                   : unified_locale.obj (.text:_ZNSt13basic_filebufIwSt11char_traitsIwEE10_M_unshiftEv)
                  0001bdb4    00000058                                   : hostread.obj (.text)
                  0001be0c    00000058                                   : hostwrite.obj (.text)
                  0001be64    00000056                                   : unified_locale.obj (.text:_ZNKSt8time_getIcSt19istreambuf_iteratorIcSt11char_traitsIcEEE14do_get_weekdayES3_S3_RSt8ios_baseRiPSt2tm)
                  0001beba    00000056                                   : unified_locale.obj (.text:_ZNKSt8time_getIcSt19istreambuf_iteratorIcSt11char_traitsIcEEE16do_get_monthnameES3_S3_RSt8ios_baseRiPSt2tm)
                  0001bf10    00000054                                   : unified_locale.obj (.text:_ZNSt13basic_filebufIwSt11char_traitsIwEE9showmanycEv)
                  0001bf64    00000054                                   : unified_locale.obj (.text:_ZNSt4priv16__do_put_integerIcSt19ostreambuf_iteratorIcSt11char_traitsIcEExEET0_S5_RSt8ios_baseT_T1_)
                  0001bfb8    00000054                                   : unified_locale.obj (.text:_ZNSt4priv16__do_put_integerIcSt19ostreambuf_iteratorIcSt11char_traitsIcEEyEET0_S5_RSt8ios_baseT_T1_)
                  0001c00c    00000054                                   : unified_locale.obj (.text:_ZNSt4priv16__do_put_integerIwSt19ostreambuf_iteratorIwSt11char_traitsIwEExEET0_S5_RSt8ios_baseT_T1_)
                  0001c060    00000054                                   : unified_locale.obj (.text:_ZNSt4priv16__do_put_integerIwSt19ostreambuf_iteratorIwSt11char_traitsIwEEyEET0_S5_RSt8ios_baseT_T1_)
                  0001c0b4    00000054                                   : boot.obj (.text)
                  0001c108    00000054                                   : exit.obj (.text)
                  0001c15c    00000054                                   : ltoa.obj (.text)
                  0001c1b0    00000052                                   : unified_locale.obj (.text:_ZNSt13basic_filebufIcSt11char_traitsIcEE9showmanycEv)
                  0001c202    00000052                                   : unified_locale.obj (.text:_ZNSt4priv11__subformatIcNS_10_Time_InfoEEEvRNS_16__basic_iostringIT_EERKSt5ctypeIS3_ERKSsRKT0_PKSt2tm)
                  0001c254    00000052                                   : unified_locale.obj (.text:_ZNSt4priv11__subformatIwNS_11_WTime_InfoEEEvRNS_16__basic_iostringIT_EERKSt5ctypeIS3_ERKSsRKT0_PKSt2tm)
                  0001c2a6    00000052                                   : unified_locale.obj (.text:_ZNSt4priv21__get_decimal_integerIPcecEEbRT_S3_RT0_PT1_)
                  0001c2f8    00000052                                   : unified_locale.obj (.text:_ZNSt4priv21__get_decimal_integerIPwewEEbRT_S3_RT0_PT1_)
                  0001c34a    00000052                                   : unified_locale.obj (.text:_ZNSt4priv21__get_decimal_integerISt19istreambuf_iteratorIcSt11char_traitsIcEEicEEbRT_S6_RT0_PT1_)
                  0001c39c    00000052                                   : unified_locale.obj (.text:_ZNSt4priv21__get_decimal_integerISt19istreambuf_iteratorIwSt11char_traitsIwEEiwEEbRT_S6_RT0_PT1_)
                  0001c3ee    00000052                                   : unified_locale.obj (.text:_ZNSt9basic_iosIwSt11char_traitsIwEE4initEPSt15basic_streambufIwS1_E)
                  0001c440    00000050     clock.obj (.text:_ZNSs10_M_reserveEj)
                  0001c490    00000050     rtsv7M4_T_le_v4SPD16_eabi.lib : unified_locale.obj (.text:_ZNSt4priv16__do_put_integerIcSt19ostreambuf_iteratorIcSt11char_traitsIcEElEET0_S5_RSt8ios_baseT_T1_)
                  0001c4e0    00000050                                   : unified_locale.obj (.text:_ZNSt4priv16__do_put_integerIcSt19ostreambuf_iteratorIcSt11char_traitsIcEEmEET0_S5_RSt8ios_baseT_T1_)
                  0001c530    00000050                                   : unified_locale.obj (.text:_ZNSt4priv16__do_put_integerIwSt19ostreambuf_iteratorIwSt11char_traitsIwEElEET0_S5_RSt8ios_baseT_T1_)
                  0001c580    00000050                                   : unified_locale.obj (.text:_ZNSt4priv16__do_put_integerIwSt19ostreambuf_iteratorIwSt11char_traitsIwEEmEET0_S5_RSt8ios_baseT_T1_)
                  0001c5d0    0000004c     clock.obj (.text:_ZNSt4priv12_String_baseIcSaIcEE17_M_allocate_blockEj)
                  0001c61c    0000004c     clock.obj (.text:_ZNSt9basic_iosIcSt11char_traitsIcEE5imbueERKSt6locale)
                  0001c668    0000004c     rtsv7M4_T_le_v4SPD16_eabi.lib : atoi.obj (.text)
                  0001c6b4    0000004c                                   : cpy_tbl.obj (.text)
                  0001c700    0000004a     clock.obj (.text:_ZNSs7reserveEj)
                  0001c74a    0000004a     rtsv7M4_T_le_v4SPD16_eabi.lib : unified_locale.obj (.text:_ZNSt13basic_filebufIcSt11char_traitsIcEE24_M_switch_to_output_modeEv)
                  0001c794    0000004a                                   : unified_locale.obj (.text:_ZNSt13basic_filebufIwSt11char_traitsIwEE24_M_switch_to_output_modeEv)
                  0001c7de    00000048                                   : unified_locale.obj (.text:_ZNKSt8time_getIwSt19istreambuf_iteratorIwSt11char_traitsIwEEE14do_get_weekdayES3_S3_RSt8ios_baseRiPSt2tm)
                  0001c826    00000048                                   : unified_locale.obj (.text:_ZNKSt8time_getIwSt19istreambuf_iteratorIwSt11char_traitsIwEEE16do_get_monthnameES3_S3_RSt8ios_baseRiPSt2tm)
                  0001c86e    00000002     --HOLE-- [fill = 0]
                  0001c870    00000048     clock.obj (.text:_ZNSaIcE11_M_allocateEjRj)
                  0001c8b8    00000048     rtsv7M4_T_le_v4SPD16_eabi.lib : unified_locale.obj (.text:_ZNSt13basic_filebufIcSt11char_traitsIcEE14_M_seek_returnEli)
                  0001c900    00000048                                   : unified_locale.obj (.text:_ZNSt13basic_filebufIwSt11char_traitsIwEE14_M_seek_returnEli)
                  0001c948    00000048                                   : dll_main.obj (.text)
                  0001c990    00000048                                   : fd_toi_t2.obj (.text)
                  0001c9d8    00000046     clock.obj (.text:_ZNSo5flushEv)
                  0001ca1e    00000046     clock.obj (.text:_ZNSs9push_backEc)
                  0001ca64    00000046     clock.obj (.text:_ZNSt15basic_streambufIcSt11char_traitsIcEE9sputbackcEc)
                  0001caaa    00000046     clock.obj (.text:_ZNSt4priv7__ucopyIPKcPciEET0_T_S5_S4_RKSt26random_access_iterator_tagPT1_)
                  0001caf0    00000046     clock.obj (.text:_ZNSt4priv7__ucopyIPcS1_iEET0_T_S3_S2_RKSt26random_access_iterator_tagPT1_)
                  0001cb36    00000044     rtsv7M4_T_le_v4SPD16_eabi.lib : unified_locale.obj (.text:_ZNKSt7num_getIcSt19istreambuf_iteratorIcSt11char_traitsIcEEE6do_getES3_S3_RSt8ios_baseRiRPv)
                  0001cb7a    00000044                                   : unified_locale.obj (.text:_ZNKSt7num_getIwSt19istreambuf_iteratorIwSt11char_traitsIwEEE6do_getES3_S3_RSt8ios_baseRiRPv)
                  0001cbbe    00000002     --HOLE-- [fill = 0]
                  0001cbc0    00000044     clock.obj (.text:_ZNSdD2Ev)
                  0001cc04    00000044     rtsv7M4_T_le_v4SPD16_eabi.lib : hostclose.obj (.text)
                  0001cc48    00000044                                   : hostunlink.obj (.text)
                  0001cc8c    00000042                                   : unified_locale.obj (.text:_ZNSbIwSt11char_traitsIwESaIwEEC1EPKwRKS1_)
                  0001ccce    00000042     clock.obj (.text:_ZNSi6sentryC1ERSib)
                  0001cd10    00000042     rtsv7M4_T_le_v4SPD16_eabi.lib : unified_locale.obj (.text:_ZNSt4priv10_Stl_primeIbE12_S_next_sizeEj)
                  0001cd52    00000002     --HOLE-- [fill = 0]
                  0001cd54    00000040                                   : unified_locale.obj (.text:_ZNSbIwSt11char_traitsIwENSt4priv20__iostring_allocatorIwEEE20_M_compute_next_sizeEj)
                  0001cd94    00000040     clock.obj (.text:_ZNSt15basic_streambufIcSt11char_traitsIcEE8pubimbueERKSt6locale)
                  0001cdd4    00000040     clock.obj (.text:_ZNSt15basic_streambufIcSt11char_traitsIcEEC1Ev)
                  0001ce14    00000040     clock.obj (.text:_ZNSt18basic_stringstreamIcSt11char_traitsIcESaIcEED2Ev)
                  0001ce54    00000040     rtsv7M4_T_le_v4SPD16_eabi.lib : unified_locale.obj (.text:_ZNSt9basic_iosIwSt11char_traitsIwEE5imbueERKSt6locale)
                  0001ce94    00000040                                   : u_divt2.obj (.text)
                  0001ced4    0000003e                                   : unified_locale.obj (.text:_ZNSt13basic_filebufIcSt11char_traitsIcEE23_M_switch_to_input_modeEv)
                  0001cf12    0000003e     clock.obj (.text:_ZNSt4priv7__ufillIPcciEEvT_S2_RKT0_RKSt26random_access_iterator_tagPT1_)
                  0001cf50    0000003e     rtsv7M4_T_le_v4SPD16_eabi.lib : unified_locale.obj (.text:_ZNSt9hashtableISt4pairIKSsS0_IPvjEESsSt4hashISsENSt4priv15_HashMapTraitsTIS4_EENS7_10_Select1stIS4_EESt8equal_toISsESaIS4_EE15_S_before_beginERKSt5slistIS4_SE_ERKSt6vectorIPNS7_16_Slist_node_baseESaISM_EERj)
                  0001cf8e    0000003e                                   : unified_locale.obj (.text:_ZNSt9hashtableISt4pairIKiSt6localeEiSt4hashIiENSt4priv15_HashMapTraitsTIS3_EENS6_10_Select1stIS3_EESt8equal_toIiESaIS3_EE15_S_before_beginERKSt5slistIS3_SD_ERKSt6vectorIPNS6_16_Slist_node_baseESaISL_EERj)
                  0001cfcc    0000003c     clock.obj (.text:_ZNKSt7num_putIcSt19ostreambuf_iteratorIcSt11char_traitsIcEEE3putES3_RSt8ios_basecl)
                  0001d008    0000003c     rtsv7M4_T_le_v4SPD16_eabi.lib : unified_locale.obj (.text:_ZNKSt9money_putIcSt19ostreambuf_iteratorIcSt11char_traitsIcEEE6do_putES3_bRSt8ios_basecRKSs)
                  0001d044    0000003c                                   : unified_locale.obj (.text:_ZNKSt9money_putIwSt19ostreambuf_iteratorIwSt11char_traitsIwEEE6do_putES3_bRSt8ios_basewRKSbIwS2_SaIwEE)
                  0001d080    0000003c                                   : unified_locale.obj (.text:_ZNSbIwSt11char_traitsIwESaIwEE20_M_compute_next_sizeEj)
                  0001d0bc    0000003c     clock.obj (.text:_ZNSs19_M_range_initializeEPKcS0_)
                  0001d0f8    0000003c     rtsv7M4_T_le_v4SPD16_eabi.lib : unified_locale.obj (.text:_ZNSt4priv12_String_baseIwNS_20__iostring_allocatorIwEEE17_M_allocate_blockEj)
                  0001d134    0000003a                                   : unified_locale.obj (.text:_ZNSbIcSt11char_traitsIcENSt4priv20__iostring_allocatorIcEEE20_M_compute_next_sizeEj)
                  0001d16e    0000003a     clock.obj (.text:_ZNSs5eraseEPcS_)
                  0001d1a8    0000003a     clock.obj (.text:_ZNSsC1ERKSs)
                  0001d1e2    00000038     rtsv7M4_T_le_v4SPD16_eabi.lib : unified_locale.obj (.text:_ZNKSt7num_putIcSt19ostreambuf_iteratorIcSt11char_traitsIcEEE6do_putES3_RSt8ios_basecx)
                  0001d21a    00000038                                   : unified_locale.obj (.text:_ZNKSt7num_putIcSt19ostreambuf_iteratorIcSt11char_traitsIcEEE6do_putES3_RSt8ios_basecy)
                  0001d252    00000038                                   : unified_locale.obj (.text:_ZNKSt7num_putIwSt19ostreambuf_iteratorIwSt11char_traitsIwEEE6do_putES3_RSt8ios_basewx)
                  0001d28a    00000038                                   : unified_locale.obj (.text:_ZNKSt7num_putIwSt19ostreambuf_iteratorIwSt11char_traitsIwEEE6do_putES3_RSt8ios_basewy)
                  0001d2c2    00000038     clock.obj (.text:_ZNSt15basic_streambufIcSt11char_traitsIcEE5uflowEv)
                  0001d2fa    00000002     --HOLE-- [fill = 0]
                  0001d2fc    00000038     clock.obj (.text:_ZNSt15basic_stringbufIcSt11char_traitsIcESaIcEEC1Ei)
                  0001d334    00000038     rtsv7M4_T_le_v4SPD16_eabi.lib : unified_locale.obj (.text:_ZNSt9hashtableISt4pairIKiSt6localeEiSt4hashIiENSt4priv15_HashMapTraitsTIS3_EENS6_10_Select1stIS3_EESt8equal_toIiESaIS3_EE10_M_enlargeEj)
                  0001d36c    00000036                                   : unified_locale.obj (.text:_ZNSt15basic_streambufIwSt11char_traitsIwEE8pubimbueERKSt6locale)
                  0001d3a2    00000036                                   : strncpy.obj (.text)
                  0001d3d8    00000034                                   : unified_locale.obj (.text:_ZNKSt7num_putIcSt19ostreambuf_iteratorIcSt11char_traitsIcEEE6do_putES3_RSt8ios_basecd)
                  0001d40c    00000034                                   : unified_locale.obj (.text:_ZNKSt7num_putIcSt19ostreambuf_iteratorIcSt11char_traitsIcEEE6do_putES3_RSt8ios_basece)
                  0001d440    00000034                                   : unified_locale.obj (.text:_ZNKSt7num_putIwSt19ostreambuf_iteratorIwSt11char_traitsIwEEE6do_putES3_RSt8ios_basewd)
                  0001d474    00000034                                   : unified_locale.obj (.text:_ZNKSt7num_putIwSt19ostreambuf_iteratorIwSt11char_traitsIwEEE6do_putES3_RSt8ios_basewe)
                  0001d4a8    00000034                                   : unified_locale.obj (.text:_ZNSbIwSt11char_traitsIwESaIwEEC1ERKS2_)
                  0001d4dc    00000034                                   : unified_locale.obj (.text:_ZNSt13basic_ostreamIwSt11char_traitsIwEEC1EPSt15basic_streambufIwS1_E)
                  0001d510    00000034     clock.obj (.text:_ZNSt15basic_stringbufIcSt11char_traitsIcESaIcEE5uflowEv)
                  0001d544    00000034     process_cmd.obj (.text:_ZSteqIcSt11char_traitsIcESaIcEEbRKSbIT_T0_T1_EPKS3_)
                  0001d578    00000032     rtsv7M4_T_le_v4SPD16_eabi.lib : unified_locale.obj (.text:_ZNKSt19istreambuf_iteratorIcSt11char_traitsIcEE7_M_getcEv)
                  0001d5aa    00000032                                   : unified_locale.obj (.text:_ZNKSt19istreambuf_iteratorIwSt11char_traitsIwEE7_M_getcEv)
                  0001d5dc    00000032     clock.obj (.text:_ZNSo6sentryD1Ev)
                  0001d60e    00000032     rtsv7M4_T_le_v4SPD16_eabi.lib : unified_locale.obj (.text:_ZNSt13basic_filebufIcSt11char_traitsIcEE6setbufEPci)
                  0001d640    00000032                                   : unified_locale.obj (.text:_ZNSt13basic_filebufIwSt11char_traitsIwEE6setbufEPwi)
                  0001d672    00000032                                   : unified_locale.obj (.text:_ZNSt19ostreambuf_iteratorIcSt11char_traitsIcEEaSEc)
                  0001d6a4    00000032                                   : unified_locale.obj (.text:_ZNSt19ostreambuf_iteratorIwSt11char_traitsIwEEaSEw)
                  0001d6d6    00000032                                   : unified_locale.obj (.text:_ZNSt4priv12_String_baseIcNS_20__iostring_allocatorIcEEE17_M_allocate_blockEj)
                  0001d708    00000030     process_cmd.obj (.text:_ZNKSs6substrEjj)
                  0001d738    00000030     rtsv7M4_T_le_v4SPD16_eabi.lib : unified_locale.obj (.text:_ZNKSt7num_putIcSt19ostreambuf_iteratorIcSt11char_traitsIcEEE6do_putES3_RSt8ios_basecl)
                  0001d768    00000030                                   : unified_locale.obj (.text:_ZNKSt7num_putIcSt19ostreambuf_iteratorIcSt11char_traitsIcEEE6do_putES3_RSt8ios_basecm)
                  0001d798    00000030                                   : unified_locale.obj (.text:_ZNKSt7num_putIwSt19ostreambuf_iteratorIwSt11char_traitsIwEEE6do_putES3_RSt8ios_basewl)
                  0001d7c8    00000030                                   : unified_locale.obj (.text:_ZNKSt7num_putIwSt19ostreambuf_iteratorIwSt11char_traitsIwEEE6do_putES3_RSt8ios_basewm)
                  0001d7f8    00000030     clock.obj (.text:_ZNSiD2Ev)
                  0001d828    00000030     clock.obj (.text:_ZNSoD2Ev)
                  0001d858    00000030     clock.obj (.text:_ZNSolsEi)
                  0001d888    00000030     clock.obj (.text:_ZNSs5clearEv)
                  0001d8b8    00000030     clock.obj (.text:_ZNSt4priv11__ucopy_auxIPcS1_EET0_T_S3_S2_RKSt11__true_type)
                  0001d8e8    00000030     rtsv7M4_T_le_v4SPD16_eabi.lib : unified_locale.obj (.text:_ZNSt4priv12_String_baseIwSaIwEE17_M_allocate_blockEj)
                  0001d918    00000030                                   : new_.obj (.text)
                  0001d948    0000002e                                   : unified_locale.obj (.text:_ZNSt4priv11_Slist_baseISt4pairIKSsS1_IPvjEESaIS5_EE14_M_erase_afterEPNS_16_Slist_node_baseES9_)
                  0001d976    0000002e                                   : unified_locale.obj (.text:_ZNSt4priv13__lower_boundIPKjjNS_8_ti_lessIjEES4_iEET_S5_S5_RKT0_T1_T2_PT3_)
                  0001d9a4    0000002e                                   : i_tofd_t2.obj (.text)
                  0001d9d2    0000002e                                   : wcsncpy.obj (.text)
                  0001da00    0000002c                                   : unified_locale.obj (.text:_ZNKSt7num_getIcSt19istreambuf_iteratorIcSt11char_traitsIcEEE6do_getES3_S3_RSt8ios_baseRiRd)
                  0001da2c    0000002c                                   : unified_locale.obj (.text:_ZNKSt7num_getIcSt19istreambuf_iteratorIcSt11char_traitsIcEEE6do_getES3_S3_RSt8ios_baseRiRe)
                  0001da58    0000002c                                   : unified_locale.obj (.text:_ZNKSt7num_getIcSt19istreambuf_iteratorIcSt11char_traitsIcEEE6do_getES3_S3_RSt8ios_baseRiRf)
                  0001da84    0000002c                                   : unified_locale.obj (.text:_ZNKSt7num_getIcSt19istreambuf_iteratorIcSt11char_traitsIcEEE6do_getES3_S3_RSt8ios_baseRiRj)
                  0001dab0    0000002c                                   : unified_locale.obj (.text:_ZNKSt7num_getIcSt19istreambuf_iteratorIcSt11char_traitsIcEEE6do_getES3_S3_RSt8ios_baseRiRl)
                  0001dadc    0000002c                                   : unified_locale.obj (.text:_ZNKSt7num_getIcSt19istreambuf_iteratorIcSt11char_traitsIcEEE6do_getES3_S3_RSt8ios_baseRiRm)
                  0001db08    0000002c                                   : unified_locale.obj (.text:_ZNKSt7num_getIcSt19istreambuf_iteratorIcSt11char_traitsIcEEE6do_getES3_S3_RSt8ios_baseRiRt)
                  0001db34    0000002c                                   : unified_locale.obj (.text:_ZNKSt7num_getIcSt19istreambuf_iteratorIcSt11char_traitsIcEEE6do_getES3_S3_RSt8ios_baseRiRx)
                  0001db60    0000002c                                   : unified_locale.obj (.text:_ZNKSt7num_getIcSt19istreambuf_iteratorIcSt11char_traitsIcEEE6do_getES3_S3_RSt8ios_baseRiRy)
                  0001db8c    0000002c                                   : unified_locale.obj (.text:_ZNKSt7num_getIwSt19istreambuf_iteratorIwSt11char_traitsIwEEE6do_getES3_S3_RSt8ios_baseRiRd)
                  0001dbb8    0000002c                                   : unified_locale.obj (.text:_ZNKSt7num_getIwSt19istreambuf_iteratorIwSt11char_traitsIwEEE6do_getES3_S3_RSt8ios_baseRiRe)
                  0001dbe4    0000002c                                   : unified_locale.obj (.text:_ZNKSt7num_getIwSt19istreambuf_iteratorIwSt11char_traitsIwEEE6do_getES3_S3_RSt8ios_baseRiRf)
                  0001dc10    0000002c                                   : unified_locale.obj (.text:_ZNKSt7num_getIwSt19istreambuf_iteratorIwSt11char_traitsIwEEE6do_getES3_S3_RSt8ios_baseRiRj)
                  0001dc3c    0000002c                                   : unified_locale.obj (.text:_ZNKSt7num_getIwSt19istreambuf_iteratorIwSt11char_traitsIwEEE6do_getES3_S3_RSt8ios_baseRiRl)
                  0001dc68    0000002c                                   : unified_locale.obj (.text:_ZNKSt7num_getIwSt19istreambuf_iteratorIwSt11char_traitsIwEEE6do_getES3_S3_RSt8ios_baseRiRm)
                  0001dc94    0000002c                                   : unified_locale.obj (.text:_ZNKSt7num_getIwSt19istreambuf_iteratorIwSt11char_traitsIwEEE6do_getES3_S3_RSt8ios_baseRiRt)
                  0001dcc0    0000002c                                   : unified_locale.obj (.text:_ZNKSt7num_getIwSt19istreambuf_iteratorIwSt11char_traitsIwEEE6do_getES3_S3_RSt8ios_baseRiRx)
                  0001dcec    0000002c                                   : unified_locale.obj (.text:_ZNKSt7num_getIwSt19istreambuf_iteratorIwSt11char_traitsIwEEE6do_getES3_S3_RSt8ios_baseRiRy)
                  0001dd18    0000002c     clock.obj (.text:_ZNSt15basic_streambufIcSt11char_traitsIcEE6sbumpcEv)
                  0001dd44    0000002c     clock.obj (.text:_ZNSt4priv15__ucopy_trivialEPKvS1_Pv)
                  0001dd70    0000002c     clock.obj (.text:_ZNSt9basic_iosIcSt11char_traitsIcEEC1Ev)
                  0001dd9c    0000002c     rtsv7M4_T_le_v4SPD16_eabi.lib : setlocale.obj (.text)
                  0001ddc8    0000002c                                   : unlink.obj (.text)
                  0001ddf4    0000002a     clock.obj (.text:_ZNKSt5ctypeIcE2isENSt10ctype_base4maskEc)
                  0001de1e    0000002a     process_cmd.obj (.text:_ZNSsaSERKSs)
                  0001de48    0000002a     rtsv7M4_T_le_v4SPD16_eabi.lib : unified_locale.obj (.text:_ZNSt19istreambuf_iteratorIcSt11char_traitsIcEEppEi)
                  0001de72    0000002a                                   : unified_locale.obj (.text:_ZNSt19istreambuf_iteratorIwSt11char_traitsIwEEppEi)
                  0001de9c    0000002a     clock.obj (.text:_ZNSt4priv12_String_baseIcSaIcEE19_M_deallocate_blockEv)
                  0001dec6    0000002a     clock.obj (.text:_ZNSt4priv22__uninitialized_fill_nIPcjcEET_S2_T0_RKT1_)
                  0001def0    00000028     rtsv7M4_T_le_v4SPD16_eabi.lib : unified_locale.obj (.text:_ZNKSbIcSt11char_traitsIcENSt4priv20__iostring_allocatorIcEEE4findEcj)
                  0001df18    00000028     clock.obj (.text:_ZNSt15basic_streambufIcSt11char_traitsIcEE5sgetcEv)
                  0001df40    00000028     rtsv7M4_T_le_v4SPD16_eabi.lib : unified_locale.obj (.text:_ZNSt15basic_streambufIwSt11char_traitsIwEEC1Ev)
                  0001df68    00000028     clock.obj (.text:_ZNSt15basic_stringbufIcSt11char_traitsIcESaIcEE9underflowEv)
                  0001df90    00000028     rtsv7M4_T_le_v4SPD16_eabi.lib : unified_locale.obj (.text:_ZNSt4priv11_Slist_baseISt4pairIKiSt6localeESaIS4_EE14_M_erase_afterEPNS_16_Slist_node_baseES8_)
                  0001dfb8    00000028                                   : unified_locale.obj (.text:_ZNSt9hashtableISt4pairIKiSt6localeEiSt4hashIiENSt4priv15_HashMapTraitsTIS3_EENS6_10_Select1stIS3_EESt8equal_toIiESaIS3_EE5clearEv)
                  0001dfe0    00000028                                   : fgetpos.obj (.text)
                  0001e008    00000028                                   : lseek.obj (.text)
                  0001e030    00000028                                   : read.obj (.text)
                  0001e058    00000028                                   : write.obj (.text)
                  0001e080    00000026     clock.obj (.text:_ZNKSt4priv12_String_baseIcSaIcEE7_M_restEv)
                  0001e0a6    00000026     clock.obj (.text:_ZNKSt4priv14_Is_not_wspaceISt11char_traitsIcEEclEc)
                  0001e0cc    00000026     process_cmd.obj (.text:_ZNSs2atEj)
                  0001e0f2    00000026     main.obj (.text:_ZNSsC1EPKcRKSaIcE)
                  0001e118    00000026     clock.obj (.text:_ZNSt15basic_streambufIcSt11char_traitsIcEE7seekposESt4fposIiEi)
                  0001e13e    00000026     clock.obj (.text:_ZNSt4priv12_String_baseIcSaIcEEC1ERKS1_j)
                  0001e164    00000026     rtsv7M4_T_le_v4SPD16_eabi.lib : unified_locale.obj (.text:_ZNSt4priv27__get_short_or_long_daynameISt19istreambuf_iteratorIwSt11char_traitsIwEENS_11_WTime_InfoEEEbRT_S7_RKT0_PSt2tm)
                  0001e18a    00000026                                   : unified_locale.obj (.text:_ZNSt4priv29__get_short_or_long_monthnameISt19istreambuf_iteratorIwSt11char_traitsIwEENS_11_WTime_InfoEEEbRT_S7_RKT0_PSt2tm)
                  0001e1b0    00000026     clock.obj (.text:_ZNSt9basic_iosIcSt11char_traitsIcEE4fillEc)
                  0001e1d6    00000026     clock.obj (.text:_ZNSt9basic_iosIcSt11char_traitsIcEE5clearEi)
                  0001e1fc    00000024     rtsv7M4_T_le_v4SPD16_eabi.lib : unified_locale.obj (.text:_ZNSt13basic_filebufIcSt11char_traitsIcEE4syncEv)
                  0001e220    00000024                                   : unified_locale.obj (.text:_ZNSt13basic_filebufIwSt11char_traitsIwEE4syncEv)
                  0001e244    00000024                                   : unified_locale.obj (.text:_ZNSt15basic_streambufIwSt11char_traitsIwEE5uflowEv)
                  0001e268    00000024     clock.obj (.text:_ZNSt4fposIiEmiEl)
                  0001e28c    00000024     rtsv7M4_T_le_v4SPD16_eabi.lib : memcmp.obj (.text)
                  0001e2b0    00000024                                   : memmov.obj (.text)
                  0001e2d4    00000022     clock.obj (.text:_ZNKSt4priv12_String_baseIcSaIcEE8max_sizeEv)
                  0001e2f6    00000022     rtsv7M4_T_le_v4SPD16_eabi.lib : unified_locale.obj (.text:_ZNSt13basic_filebufIcSt11char_traitsIcEE21_M_deallocate_buffersEv)
                  0001e318    00000022                                   : unified_locale.obj (.text:_ZNSt13basic_filebufIwSt11char_traitsIwEE21_M_deallocate_buffersEv)
                  0001e33a    00000022     clock.obj (.text:_ZNSt15basic_streambufIcSt11char_traitsIcEE4setgEPcS3_S3_)
                  0001e35c    00000022     clock.obj (.text:_ZNSt15basic_streambufIcSt11char_traitsIcEE7seekoffElii)
                  0001e37e    00000022     clock.obj (.text:_ZNSt4priv12_String_baseIcSaIcEE8_M_resetEPcS3_S3_)
                  0001e3a0    00000020     rtsv7M4_T_le_v4SPD16_eabi.lib : unified_locale.obj (.text:_ZNSt13basic_filebufIcSt11char_traitsIcEE14_M_input_errorEv)
                  0001e3c0    00000020                                   : unified_locale.obj (.text:_ZNSt13basic_filebufIcSt11char_traitsIcEE15_M_output_errorEv)
                  0001e3e0    00000020                                   : unified_locale.obj (.text:_ZNSt13basic_filebufIcSt11char_traitsIcEED1Ev)
                  0001e400    00000020                                   : unified_locale.obj (.text:_ZNSt13basic_filebufIwSt11char_traitsIwEE14_M_input_errorEv)
                  0001e420    00000020                                   : unified_locale.obj (.text:_ZNSt13basic_filebufIwSt11char_traitsIwEE15_M_output_errorEv)
                  0001e440    00000020     clock.obj (.text:_ZNSt15basic_streambufIcSt11char_traitsIcEE4setpEPcS3_)
                  0001e460    00000020     clock.obj (.text:_ZNSt19ostreambuf_iteratorIcSt11char_traitsIcEEC1EPSt15basic_streambufIcS1_E)
                  0001e480    00000020     clock.obj (.text:_ZNSt4priv7__ucopyIPKcPcEET0_T_S5_S4_)
                  0001e4a0    00000020     clock.obj (.text:_ZNSt4priv7__ucopyIPcS1_EET0_T_S3_S2_)
                  0001e4c0    00000020     clock.obj (.text:_ZSt16_Param_ConstructIccEvPT_RKT0_)
                  0001e4e0    00000020     clock.obj (.text:_ZSt18uninitialized_copyIPcS0_ET0_T_S2_S1_)
                  0001e500    00000020     rtsv7M4_T_le_v4SPD16_eabi.lib : guard.obj (.text)
                  0001e520    00000020                                   : memchr.obj (.text)
                  0001e540    00000020                                   : wcscmp.obj (.text)
                  0001e560    0000001e     clock.obj (.text:_ZNKSs5emptyEv)
                  0001e57e    0000001e     clock.obj (.text:_ZNSs18_M_append_dispatchIPKcEERSsT_S3_RKSt12__false_type)
                  0001e59c    0000001e     rtsv7M4_T_le_v4SPD16_eabi.lib : unified_locale.obj (.text:_ZNSt13basic_filebufIcSt11char_traitsIcEE5imbueERKSt6locale)
                  0001e5ba    0000001e                                   : unified_locale.obj (.text:_ZNSt13basic_filebufIwSt11char_traitsIwEE5imbueERKSt6locale)
                  0001e5d8    0000001e     clock.obj (.text:_ZNSt15basic_streambufIcSt11char_traitsIcEE9_M_sputncEci)
                  0001e5f6    0000001e     clock.obj (.text:_ZNSt18__char_traits_baseIciE7not_eofERKi)
                  0001e614    0000001e     clock.obj (.text:_ZNSt9basic_iosIcSt11char_traitsIcEE5rdbufEPSt15basic_streambufIcS1_E)
                  0001e632    0000001e     rtsv7M4_T_le_v4SPD16_eabi.lib : unified_locale.obj (.text:_ZNSt9basic_iosIwSt11char_traitsIwEE5rdbufEPSt15basic_streambufIwS1_E)
                  0001e650    0000001e     clock.obj (.text:_ZSt3maxIjERKT_S2_S2_)
                  0001e66e    0000001e     clock.obj (.text:_ZSt3minIjERKT_S2_S2_)
                  0001e68c    0000001e     clock.obj (.text:_ZTv0_n12_NSdD1Ev)
                  0001e6aa    0000001e     clock.obj (.text:_ZTv0_n12_NSiD1Ev)
                  0001e6c8    0000001e     clock.obj (.text:_ZTv0_n12_NSoD1Ev)
                  0001e6e6    0000001e     clock.obj (.text:_ZTv0_n12_NSt18basic_stringstreamIcSt11char_traitsIcESaIcEED1Ev)
                  0001e704    0000001c     clock.obj (.text:_ZNKSt4priv12_String_baseIcSaIcEE11_M_capacityEv)
                  0001e720    0000001c     clock.obj (.text:_ZNSs6appendIPKcEERSsT_S3_)
                  0001e73c    0000001c     rtsv7M4_T_le_v4SPD16_eabi.lib : unified_locale.obj (.text:_ZNSt15basic_streambufIwSt11char_traitsIwEE7seekposESt4fposIiEi)
                  0001e758    0000001c     clock.obj (.text:_ZNSt18__char_traits_baseIciE11eq_int_typeERKiS2_)
                  0001e774    0000001c     clock.obj (.text:_ZNSt18__char_traits_baseIciE2eqERKcS2_)
                  0001e790    0000001c     clock.obj (.text:_ZNSt18__char_traits_baseIciE4copyEPcPKcj)
                  0001e7ac    0000001c     clock.obj (.text:_ZNSt18__char_traits_baseIciE4moveEPcPKcj)
                  0001e7c8    0000001c     clock.obj (.text:_ZNSt4priv12_String_baseIcSaIcEEC1ERKS1_)
                  0001e7e4    0000001c     clock.obj (.text:_ZNSt4priv12__ucopy_ptrsIPcS1_EET0_T_S3_S2_RKSt11__true_type)
                  0001e800    0000001c     clock.obj (.text:_ZNSt4priv17_STLP_alloc_proxyIPccSaIcEE8allocateEjRj)
                  0001e81c    0000001c     clock.obj (.text:_ZNSt4priv17_STLP_alloc_proxyIPccSaIcEE8allocateEjRjRKSt11__true_type)
                  0001e838    0000001c     rtsv7M4_T_le_v4SPD16_eabi.lib : unified_locale.obj (.text:_ZNSt9basic_iosIwSt11char_traitsIwEEC2Ev)
                  0001e854    0000001c     clock.obj (.text:_ZSt10_ConstructIcEvPT_)
                  0001e870    0000001c     rtsv7M4_T_le_v4SPD16_eabi.lib : unified_locale.obj (.text:_ZTv0_n12_NSt13basic_istreamIwSt11char_traitsIwEED0Ev)
                  0001e88c    0000001c                                   : memccpy.obj (.text)
                  0001e8a8    0000001a     clock.obj (.text:_ZNKSt19ostreambuf_iteratorIcSt11char_traitsIcEE6failedEv)
                  0001e8c2    0000001a     clock.obj (.text:_ZNSo6sentryC1ERSo)
                  0001e8dc    0000001a     clock.obj (.text:_ZNSsC1ERKSaIcE)
                  0001e8f6    0000001a     clock.obj (.text:_ZNSsaSEPKc)
                  0001e910    0000001a     clock.obj (.text:_ZNSt11char_traitsIcE6assignEPcjc)
                  0001e92a    0000001a     clock.obj (.text:_ZNSt15basic_streambufIcSt11char_traitsIcEE5sputnEPKci)
                  0001e944    0000001a     rtsv7M4_T_le_v4SPD16_eabi.lib : unified_locale.obj (.text:_ZNSt15basic_streambufIwSt11char_traitsIwEE6sbumpcEv)
                  0001e95e    0000001a                                   : unified_locale.obj (.text:_ZNSt15basic_streambufIwSt11char_traitsIwEE7seekoffElii)
                  0001e978    0000001a     clock.obj (.text:_ZNSt4fposIiEC1El)
                  0001e992    0000001a     clock.obj (.text:_ZNSt4priv17_STLP_alloc_proxyIPccSaIcEEC1ERKS2_S1_)
                  0001e9ac    0000001a     clock.obj (.text:_ZNSt8ios_base5flagsEi)
                  0001e9c6    0000001a     clock.obj (.text:_ZNSt8ios_base5widthEi)
                  0001e9e0    0000001a     clock.obj (.text:_ZNSt8ios_base9precisionEi)
                  0001e9fa    0000001a     clock.obj (.text:_ZNSt9basic_iosIcSt11char_traitsIcEE3tieEPSo)
                  0001ea14    0000001a     clock.obj (.text:_ZTv0_n12_NSdD0Ev)
                  0001ea2e    0000001a     clock.obj (.text:_ZTv0_n12_NSiD0Ev)
                  0001ea48    0000001a     clock.obj (.text:_ZTv0_n12_NSoD0Ev)
                  0001ea62    0000001a     clock.obj (.text:_ZTv0_n12_NSt18basic_stringstreamIcSt11char_traitsIcESaIcEED0Ev)
                  0001ea7c    00000018     clock.obj (.text:_ZNKSt4priv12_String_baseIcSaIcEE19_M_using_static_bufEv)
                  0001ea94    00000018     clock.obj (.text:_ZNKSt4priv20_Scan_for_not_wspaceISt11char_traitsIcEEclEPKcS5_)
                  0001eaac    00000018     rtsv7M4_T_le_v4SPD16_eabi.lib : unified_locale.obj (.text:_ZNSt13basic_filebufIcSt11char_traitsIcEE19_M_allocate_buffersEv)
                  0001eac4    00000018                                   : unified_locale.obj (.text:_ZNSt13basic_filebufIwSt11char_traitsIwEE19_M_allocate_buffersEv)
                  0001eadc    00000018     clock.obj (.text:_ZNSt4fposIiEmIEl)
                  0001eaf4    00000018     rtsv7M4_T_le_v4SPD16_eabi.lib : unified_locale.obj (.text:_ZNSt4priv10_Sl_globalIbE14__splice_afterEPNS_16_Slist_node_baseES3_S3_)
                  0001eb0c    00000018     clock.obj (.text:_ZNSt4priv10__distanceIPKcEENSt15iterator_traitsIT_E15difference_typeERKS4_S8_RKSt26random_access_iterator_tag)
                  0001eb24    00000018     clock.obj (.text:_ZNSt8ios_base23_M_check_exception_maskEv)
                  0001eb3c    00000018     clock.obj (.text:_ZNSt9basic_iosIcSt11char_traitsIcEE8setstateEi)
                  0001eb54    00000018     rtsv7M4_T_le_v4SPD16_eabi.lib : args_main.obj (.text)
                  0001eb6c    00000018                                   : ll_mul_t2.obj (.text)
                  0001eb84    00000018                                   : strcmp.obj (.text)
                  0001eb9c    00000018                                   : strrchr.obj (.text)
                  0001ebb4    00000016     clock.obj (.text:_ZNKSs4sizeEv)
                  0001ebca    00000016     clock.obj (.text:_ZNSaIcE10deallocateEPcj)
                  0001ebe0    00000016     clock.obj (.text:_ZNSdD0Ev)
                  0001ebf6    00000016     clock.obj (.text:_ZNSiD0Ev)
                  0001ec0c    00000016     clock.obj (.text:_ZNSoD0Ev)
                  0001ec22    00000016     process_cmd.obj (.text:_ZNSspLEc)
                  0001ec38    00000016     rtsv7M4_T_le_v4SPD16_eabi.lib : unified_locale.obj (.text:_ZNSt13basic_istreamIwSt11char_traitsIwEED0Ev)
                  0001ec4e    00000016     clock.obj (.text:_ZNSt15basic_streambufIcSt11char_traitsIcEE5gbumpEi)
                  0001ec64    00000016     clock.obj (.text:_ZNSt15basic_streambufIcSt11char_traitsIcEE5pbumpEi)
                  0001ec7a    00000016     clock.obj (.text:_ZNSt15basic_streambufIcSt11char_traitsIcEED0Ev)
                  0001ec90    00000016     clock.obj (.text:_ZNSt15basic_stringbufIcSt11char_traitsIcESaIcEE9_S_finishERKSs)
                  0001eca6    00000016     clock.obj (.text:_ZNSt15basic_stringbufIcSt11char_traitsIcESaIcEED0Ev)
                  0001ecbc    00000016     clock.obj (.text:_ZNSt15basic_stringbufIcSt11char_traitsIcESaIcEED1Ev)
                  0001ecd2    00000016     clock.obj (.text:_ZNSt18basic_stringstreamIcSt11char_traitsIcESaIcEED0Ev)
                  0001ece8    00000016     clock.obj (.text:_ZNSt4priv12_String_baseIcSaIcEED1Ev)
                  0001ecfe    00000016     clock.obj (.text:_ZNSt4priv9_UseFacetISt5ctypeIcEEEPT_RKSt6localePKS3_)
                  0001ed14    00000016     clock.obj (.text:_ZNSt4priv9_UseFacetISt7num_putIcSt19ostreambuf_iteratorIcSt11char_traitsIcEEEEEPT_RKSt6localePKS7_)
                  0001ed2a    00000016     clock.obj (.text:_ZNSt9basic_iosIcSt11char_traitsIcEED0Ev)
                  0001ed40    00000016     clock.obj (.text:_ZSt20_Param_Construct_auxIccEvPT_RKT0_RKSt11__true_type)
                  0001ed56    00000016     clock.obj (.text:_ZThn8_NSdD1Ev)
                  0001ed6c    00000016     clock.obj (.text:_ZThn8_NSt18basic_stringstreamIcSt11char_traitsIcESaIcEED1Ev)
                  0001ed82    00000016     rtsv7M4_T_le_v4SPD16_eabi.lib : unified_locale.obj (.text:_ZTv0_n12_NSt13basic_istreamIwSt11char_traitsIwEED1Ev)
                  0001ed98    00000016                                   : strchr.obj (.text)
                  0001edae    00000014     clock.obj (.text:_ZNKSt8ios_base4goodEv)
                  0001edc2    00000014     rtsv7M4_T_le_v4SPD16_eabi.lib : unified_locale.obj (.text:_ZNKSt9hashtableISt4pairIKSsS0_IPvjEESsSt4hashISsENSt4priv15_HashMapTraitsTIS4_EENS7_10_Select1stIS4_EESt8equal_toISsESaIS4_EE15_M_before_beginERj)
                  0001edd6    00000014                                   : unified_locale.obj (.text:_ZNKSt9hashtableISt4pairIKiSt6localeEiSt4hashIiENSt4priv15_HashMapTraitsTIS3_EENS6_10_Select1stIS3_EESt8equal_toIiESaIS3_EE15_M_before_beginERj)
                  0001edea    00000014                                   : unified_locale.obj (.text:_ZNSbIwSt11char_traitsIwESaIwEED1Ev)
                  0001edfe    00000014     clock.obj (.text:_ZNSs19_M_terminate_stringEv)
                  0001ee12    00000014     clock.obj (.text:_ZNSt11char_traitsIcE6assignERcRKc)
                  0001ee26    00000014     process_cmd.obj (.text:_ZNSt11char_traitsIcE7compareEPKcS2_j)
                  0001ee3a    00000014     rtsv7M4_T_le_v4SPD16_eabi.lib : unified_locale.obj (.text:_ZNSt13basic_filebufIcSt11char_traitsIcEE18_M_exit_input_modeEv)
                  0001ee4e    00000014                                   : unified_locale.obj (.text:_ZNSt13basic_filebufIwSt11char_traitsIwEE18_M_exit_input_modeEv)
                  0001ee62    00000014     clock.obj (.text:_ZNSt4priv12_String_baseIcSaIcEEC2ERKS1_j)
                  0001ee76    00000014     clock.obj (.text:_ZNSt4priv14_Is_not_wspaceISt11char_traitsIcEEC1EPKSt5ctypeIcE)
                  0001ee8a    00000014     clock.obj (.text:_ZNSt4priv20_Scan_for_not_wspaceISt11char_traitsIcEEC1EPKSt5ctypeIcE)
                  0001ee9e    00000014     clock.obj (.text:_ZNSt9basic_iosIcSt11char_traitsIcEE6_S_eofEi)
                  0001eeb2    00000014     clock.obj (.text:_ZSt18uninitialized_copyPKcS0_Pc)
                  0001eec6    00000002     --HOLE-- [fill = 0]
                  0001eec8    00000014     rtsv7M4_T_le_v4SPD16_eabi.lib : _lock.obj (.text)
                  0001eedc    00000014                                   : s_copysign.obj (.text)
                  0001eef0    00000014                                   : strcpy.obj (.text)
                  0001ef04    00000014                                   : strlen.obj (.text)
                  0001ef18    00000014                                   : wmemset.obj (.text)
                  0001ef2c    00000012     clock.obj (.text:_ZNKSs13get_allocatorEv)
                  0001ef3e    00000012     clock.obj (.text:_ZNKSt8ios_base6getlocEv)
                  0001ef50    00000012     clock.obj (.text:_ZNKSt9basic_iosIcSt11char_traitsIcEE5widenEc)
                  0001ef62    00000012     clock.obj (.text:_ZNSoC1EPSt15basic_streambufIcSt11char_traitsIcEE)
                  0001ef74    00000012     clock.obj (.text:_ZNSt15basic_streambufIcSt11char_traitsIcEE7pubsyncEv)
                  0001ef86    00000012     clock.obj (.text:_ZNSt18basic_stringstreamIcSt11char_traitsIcESaIcEEC1Ei)
                  0001ef98    00000012     clock.obj (.text:_ZNSt8ios_base16_M_clear_nothrowEi)
                  0001efaa    00000012     clock.obj (.text:_ZNSt8ios_base21_M_set_exception_maskEi)
                  0001efbc    00000012     clock.obj (.text:_ZSt14_Construct_auxIcEvPT_RKSt11__true_type)
                  0001efce    00000012     clock.obj (.text:_ZSt8distanceIPKcENSt15iterator_traitsIT_E15difference_typeES3_S3_)
                  0001efe0    00000012     clock.obj (.text:_ZSt9use_facetISt5ctypeIcEERKT_RKSt6locale)
                  0001eff2    00000012     clock.obj (.text:_ZSt9use_facetISt7num_putIcSt19ostreambuf_iteratorIcSt11char_traitsIcEEEERKT_RKSt6locale)
                  0001f004    00000012     clock.obj (.text:_ZStlsISt11char_traitsIcEERSt13basic_ostreamIcT_ES5_PKc)
                  0001f016    00000012     clock.obj (.text:_ZThn8_NSdD0Ev)
                  0001f028    00000012     clock.obj (.text:_ZThn8_NSt18basic_stringstreamIcSt11char_traitsIcESaIcEED0Ev)
                  0001f03a    00000012     rtsv7M4_T_le_v4SPD16_eabi.lib : wcslen.obj (.text)
                  0001f04c    00000010     clock.obj (.text:_ZNKSt4priv12_String_baseIcSaIcEE21_M_throw_length_errorEv)
                  0001f05c    00000010     process_cmd.obj (.text:_ZNKSt4priv12_String_baseIcSaIcEE21_M_throw_out_of_rangeEv)
                  0001f06c    00000010     clock.obj (.text:_ZNKSt9basic_iosIcSt11char_traitsIcEE4fillEv)
                  0001f07c    00000010     clock.obj (.text:_ZNSaIcEC2ERKS_)
                  0001f08c    00000010     rtsv7M4_T_le_v4SPD16_eabi.lib : unified_locale.obj (.text:_ZNSt13basic_istreamIwSt11char_traitsIwEED1Ev)
                  0001f09c    00000010     clock.obj (.text:_ZNSt15basic_streambufIcSt11char_traitsIcEE6setbufEPci)
                  0001f0ac    00000010     clock.obj (.text:_ZNSt15basic_streambufIcSt11char_traitsIcEE8_M_gbumpEi)
                  0001f0bc    00000010     clock.obj (.text:_ZNSt15basic_streambufIcSt11char_traitsIcEED1Ev)
                  0001f0cc    00000010     rtsv7M4_T_le_v4SPD16_eabi.lib : unified_locale.obj (.text:_ZNSt15basic_streambufIwSt11char_traitsIwEED1Ev)
                  0001f0dc    00000010                                   : unified_locale.obj (.text:_ZNSt4priv10_Stl_primeIbE9_S_primesERj)
                  0001f0ec    00000010     clock.obj (.text:_ZNSt4priv11_GetFacetIdISt5ctypeIcEEERNSt6locale2idEPKT_)
                  0001f0fc    00000010     clock.obj (.text:_ZNSt4priv12_String_baseIcSaIcEEC2ERKS1_)
                  0001f10c    00000010     clock.obj (.text:_ZSt16_UseTrivialUCopyIccESt13_TrivialUCopyIT_T0_EPS1_PS2_)
                  0001f11c    00000010     rtsv7M4_T_le_v4SPD16_eabi.lib : setbuf.obj (.text)
                  0001f12c    00000010                                   : toupper.obj (.text)
                  0001f13c    0000000e     clock.obj (.text:_ZNKSaIcE8max_sizeEv)
                  0001f14a    0000000e     clock.obj (.text:_ZNKSi6sentrycvbEv)
                  0001f158    0000000e     clock.obj (.text:_ZNKSo6sentrycvbEv)
                  0001f166    0000000e     clock.obj (.text:_ZNKSs17_M_construct_nullEPc)
                  0001f174    0000000e     clock.obj (.text:_ZNKSt15basic_streambufIcSt11char_traitsIcEE4gptrEv)
                  0001f182    0000000e     clock.obj (.text:_ZNKSt15basic_streambufIcSt11char_traitsIcEE4pptrEv)
                  0001f190    0000000e     clock.obj (.text:_ZNKSt15basic_streambufIcSt11char_traitsIcEE5ebackEv)
                  0001f19e    0000000e     clock.obj (.text:_ZNKSt15basic_streambufIcSt11char_traitsIcEE5egptrEv)
                  0001f1ac    0000000e     clock.obj (.text:_ZNKSt15basic_streambufIcSt11char_traitsIcEE5epptrEv)
                  0001f1ba    0000000e     clock.obj (.text:_ZNKSt15basic_streambufIcSt11char_traitsIcEE5pbaseEv)
                  0001f1c8    0000000e     clock.obj (.text:_ZNKSt4fposIiEcvlEv)
                  0001f1d6    0000000e     clock.obj (.text:_ZNKSt4priv12_String_baseIcSaIcEE8_M_StartEv)
                  0001f1e4    0000000e     clock.obj (.text:_ZNKSt4priv12_String_baseIcSaIcEE9_M_FinishEv)
                  0001f1f2    0000000e     clock.obj (.text:_ZNKSt8ios_base5flagsEv)
                  0001f200    0000000e     clock.obj (.text:_ZNKSt8ios_base5widthEv)
                  0001f20e    0000000e     clock.obj (.text:_ZNKSt8ios_base7rdstateEv)
                  0001f21c    0000000e     clock.obj (.text:_ZNKSt9basic_iosIcSt11char_traitsIcEE14_M_ctype_facetEv)
                  0001f22a    0000000e     clock.obj (.text:_ZNKSt9basic_iosIcSt11char_traitsIcEE3tieEv)
                  0001f238    0000000e     clock.obj (.text:_ZNKSt9basic_iosIcSt11char_traitsIcEE5rdbufEv)
                  0001f246    0000000e     clock.obj (.text:_ZNSaIcEC1ERKS_)
                  0001f254    0000000e     clock.obj (.text:_ZNSdD1Ev)
                  0001f262    0000000e     clock.obj (.text:_ZNSiD1Ev)
                  0001f270    0000000e     clock.obj (.text:_ZNSoD1Ev)
                  0001f27e    0000000e     clock.obj (.text:_ZNSsD1Ev)
                  0001f28c    0000000e     clock.obj (.text:_ZNSt11__new_alloc10deallocateEPvj)
                  0001f29a    0000000e     clock.obj (.text:_ZNSt11char_traitsIcE11to_int_typeERKc)
                  0001f2a8    0000000e     clock.obj (.text:_ZNSt11char_traitsIcE12to_char_typeERKi)
                  0001f2b6    0000000e     rtsv7M4_T_le_v4SPD16_eabi.lib : unified_locale.obj (.text:_ZNSt13basic_filebufIcSt11char_traitsIcEED0Ev)
                  0001f2c4    0000000e                                   : unified_locale.obj (.text:_ZNSt13basic_filebufIwSt11char_traitsIwEED0Ev)
                  0001f2d2    0000000e                                   : unified_locale.obj (.text:_ZNSt13basic_ostreamIwSt11char_traitsIwEED0Ev)
                  0001f2e0    0000000e                                   : unified_locale.obj (.text:_ZNSt13basic_ostreamIwSt11char_traitsIwEED1Ev)
                  0001f2ee    0000000e                                   : unified_locale.obj (.text:_ZNSt15basic_streambufIwSt11char_traitsIwEED0Ev)
                  0001f2fc    0000000e     clock.obj (.text:_ZNSt18basic_stringstreamIcSt11char_traitsIcESaIcEED1Ev)
                  0001f30a    0000000e     clock.obj (.text:_ZNSt4priv12_String_baseIcSaIcEE8_M_StartEv)
                  0001f318    0000000e     clock.obj (.text:_ZNSt4priv12_String_baseIcSaIcEE9_M_FinishEv)
                  0001f326    0000000e     clock.obj (.text:_ZNSt4priv17_STLP_alloc_proxyIPccSaIcEED1Ev)
                  0001f334    0000000e     clock.obj (.text:_ZNSt9basic_iosIcSt11char_traitsIcEED1Ev)
                  0001f342    0000000e     rtsv7M4_T_le_v4SPD16_eabi.lib : unified_locale.obj (.text:_ZNSt9basic_iosIwSt11char_traitsIwEED0Ev)
                  0001f350    0000000e     clock.obj (.text:_ZSt7_Is_PODIcESt6_IsPODIT_EPS1_)
                  0001f35e    0000000e     rtsv7M4_T_le_v4SPD16_eabi.lib : unified_locale.obj (.text:_ZTv0_n12_NSt13basic_ostreamIwSt11char_traitsIwEED0Ev)
                  0001f36c    0000000e                                   : unified_locale.obj (.text:_ZTv0_n12_NSt13basic_ostreamIwSt11char_traitsIwEED1Ev)
                  0001f37a    0000000e                                   : copy_decompress_none.obj (.text:decompress:none)
                  0001f388    0000000c     clock.obj (.text:_ZNKSs4dataEv)
                  0001f394    0000000c     clock.obj (.text:_ZNKSs5c_strEv)
                  0001f3a0    0000000c     process_cmd.obj (.text:_ZNKSs6lengthEv)
                  0001f3ac    0000000c     clock.obj (.text:_ZNKSs8max_sizeEv)
                  0001f3b8    0000000c     clock.obj (.text:_ZNKSt15basic_streambufIcSt11char_traitsIcEE7_M_gptrEv)
                  0001f3c4    0000000c     clock.obj (.text:_ZNKSt15basic_streambufIcSt11char_traitsIcEE8_M_egptrEv)
                  0001f3d0    0000000c     rtsv7M4_T_le_v4SPD16_eabi.lib : unified_locale.obj (.text:_ZNKSt4priv12_String_baseIcNS_20__iostring_allocatorIcEEE21_M_throw_length_errorEv)
                  0001f3dc    0000000c                                   : unified_locale.obj (.text:_ZNKSt4priv12_String_baseIwNS_20__iostring_allocatorIwEEE21_M_throw_length_errorEv)
                  0001f3e8    0000000c                                   : unified_locale.obj (.text:_ZNKSt4priv12_String_baseIwSaIwEE21_M_throw_length_errorEv)
                  0001f3f4    0000000c                                   : unified_locale.obj (.text:_ZNKSt4priv12_Vector_baseIPNSt6locale5facetESaIS3_EE21_M_throw_length_errorEv)
                  0001f400    0000000c     clock.obj (.text:_ZNSaIcEC1Ev)
                  0001f40c    0000000c     clock.obj (.text:_ZNSaIcED1Ev)
                  0001f418    0000000c     clock.obj (.text:_ZNSaIcED2Ev)
                  0001f424    0000000c     clock.obj (.text:_ZNSi6sentryD1Ev)
                  0001f430    0000000c     clock.obj (.text:_ZNSs3endEv)
                  0001f43c    0000000c     clock.obj (.text:_ZNSs5beginEv)
                  0001f448    0000000c     clock.obj (.text:_ZNSt11__new_alloc8allocateEj)
                  0001f454    0000000c     clock.obj (.text:_ZNSt11char_traitsIcE6lengthEPKc)
                  0001f460    0000000c     clock.obj (.text:_ZNSt12_BothPtrTypeIPcS0_E7_AnswerEv)
                  0001f46c    0000000c     clock.obj (.text:_ZNSt13_TrivialUCopyIccE7_AnswerEv)
                  0001f478    0000000c     clock.obj (.text:_ZNSt15basic_streambufIcSt11char_traitsIcEE4syncEv)
                  0001f484    0000000c     clock.obj (.text:_ZNSt15basic_streambufIcSt11char_traitsIcEE5imbueERKSt6locale)
                  0001f490    0000000c     clock.obj (.text:_ZNSt15basic_streambufIcSt11char_traitsIcEE8overflowEi)
                  0001f49c    0000000c     clock.obj (.text:_ZNSt15basic_streambufIcSt11char_traitsIcEE9pbackfailEi)
                  0001f4a8    0000000c     clock.obj (.text:_ZNSt15basic_streambufIcSt11char_traitsIcEE9showmanycEv)
                  0001f4b4    0000000c     clock.obj (.text:_ZNSt15basic_streambufIcSt11char_traitsIcEEC2Ev)
                  0001f4c0    0000000c     clock.obj (.text:_ZNSt15basic_streambufIcSt11char_traitsIcEED2Ev)
                  0001f4cc    0000000c     clock.obj (.text:_ZNSt15basic_stringbufIcSt11char_traitsIcESaIcEE8_S_startERKSs)
                  0001f4d8    0000000c     clock.obj (.text:_ZNSt4priv12_String_baseIcSaIcEED2Ev)
                  0001f4e4    0000000c     clock.obj (.text:_ZNSt6_IsPODIcE7_AnswerEv)
                  0001f4f0    0000000c     clock.obj (.text:_ZNSt9basic_iosIcSt11char_traitsIcEEC2Ev)
                  0001f4fc    0000000c     clock.obj (.text:_ZNSt9basic_iosIcSt11char_traitsIcEED2Ev)
                  0001f508    0000000c     clock.obj (.text:_ZSt12__stl_deletePv)
                  0001f514    0000000c     clock.obj (.text:_ZSt9__stl_newj)
                  0001f520    0000000c     rtsv7M4_T_le_v4SPD16_eabi.lib : copy_zero_init.obj (.text:decompress:ZI)
                  0001f52c    0000000c     tm4c1294ncpdt_startup_ccs.obj (.text)
                  0001f538    0000000a     rtsv7M4_T_le_v4SPD16_eabi.lib : unified_locale.obj (.text:_ZNKSt10moneypunctIcLb0EE13decimal_pointEv)
                  0001f542    0000000a                                   : unified_locale.obj (.text:_ZNKSt10moneypunctIwLb0EE13decimal_pointEv)
                  0001f54c    0000000a                                   : unified_locale.obj (.text:_ZNKSt10moneypunctIwLb1EE13decimal_pointEv)
                  0001f556    0000000a                                   : unified_locale.obj (.text:_ZNKSt5ctypeIcE5widenEc)
                  0001f560    0000000a                                   : unified_locale.obj (.text:_ZNKSt5ctypeIwE5widenEPKcS2_Pw)
                  0001f56a    0000000a                                   : unified_locale.obj (.text:_ZNKSt5ctypeIwE5widenEc)
                  0001f574    0000000a                                   : unified_locale.obj (.text:_ZNKSt8numpunctIcE13decimal_pointEv)
                  0001f57e    0000000a                                   : unified_locale.obj (.text:_ZNKSt8numpunctIcE13thousands_sepEv)
                  0001f588    0000000a                                   : unified_locale.obj (.text:_ZNKSt8numpunctIcE8groupingEv)
                  0001f592    0000000a                                   : unified_locale.obj (.text:_ZNKSt8numpunctIcE9falsenameEv)
                  0001f59c    0000000a                                   : unified_locale.obj (.text:_ZNKSt8numpunctIwE13thousands_sepEv)
                  0001f5a6    0000000a                                   : unified_locale.obj (.text:_ZNKSt8numpunctIwE8groupingEv)
                  0001f5b0    0000000a                                   : unified_locale.obj (.text:_ZNKSt8numpunctIwE9falsenameEv)
                  0001f5ba    0000000a     clock.obj (.text:_ZNSt15basic_streambufIcSt11char_traitsIcEE9underflowEv)
                  0001f5c4    0000000a     rtsv7M4_T_le_v4SPD16_eabi.lib : unified_locale.obj (.text:_ZNSt6vectorIPNSt6locale5facetESaIS2_EE8_M_clearEv)
                  0001f5ce    00000008                                   : unified_locale.obj (.text:_ZNSt7num_getIcSt19istreambuf_iteratorIcSt11char_traitsIcEEED0Ev)
                  0001f5d6    00000008                                   : unified_locale.obj (.text:_ZNSt7num_getIwSt19istreambuf_iteratorIwSt11char_traitsIwEEED0Ev)
                  0001f5de    00000008                                   : unified_locale.obj (.text:_ZNSt7num_putIcSt19ostreambuf_iteratorIcSt11char_traitsIcEEED0Ev)
                  0001f5e6    00000008                                   : unified_locale.obj (.text:_ZNSt7num_putIwSt19ostreambuf_iteratorIwSt11char_traitsIwEEED0Ev)
                  0001f5ee    00000008                                   : unified_locale.obj (.text:_ZNSt8messagesIcED0Ev)
                  0001f5f6    00000008                                   : unified_locale.obj (.text:_ZNSt8messagesIwED0Ev)
                  0001f5fe    00000008                                   : unified_locale.obj (.text:_ZNSt9money_getIcSt19istreambuf_iteratorIcSt11char_traitsIcEEED0Ev)
                  0001f606    00000008                                   : unified_locale.obj (.text:_ZNSt9money_getIwSt19istreambuf_iteratorIwSt11char_traitsIwEEED0Ev)
                  0001f60e    00000008                                   : unified_locale.obj (.text:_ZNSt9money_putIcSt19ostreambuf_iteratorIcSt11char_traitsIcEEED0Ev)
                  0001f616    00000008                                   : unified_locale.obj (.text:_ZNSt9money_putIwSt19ostreambuf_iteratorIwSt11char_traitsIwEEED0Ev)
                  0001f61e    00000008                                   : delete.obj (.text)
                  0001f626    00000008                                   : fsetpos.obj (.text)
                  0001f62e    00000006                                   : unified_locale.obj (.text:_ZNKSt15time_get_bynameIcSt19istreambuf_iteratorIcSt11char_traitsIcEEE13do_date_orderEv)
                  0001f634    00000006                                   : unified_locale.obj (.text:_ZNKSt15time_get_bynameIwSt19istreambuf_iteratorIwSt11char_traitsIwEEE13do_date_orderEv)
                  0001f63a    00000006                                   : unified_locale.obj (.text:_ZNKSt8messagesIcE6do_getEiiiRKSs)
                  0001f640    00000006                                   : unified_locale.obj (.text:_ZNKSt8messagesIcE7do_openERKSsRKSt6locale)
                  0001f646    00000006                                   : unified_locale.obj (.text:_ZNKSt8messagesIwE6do_getEiiiRKSbIwSt11char_traitsIwESaIwEE)
                  0001f64c    00000006                                   : unified_locale.obj (.text:_ZNKSt8messagesIwE7do_openERKSsRKSt6locale)
                  0001f652    00000006                                   : unified_locale.obj (.text:_ZNKSt8time_getIcSt19istreambuf_iteratorIcSt11char_traitsIcEEE13do_date_orderEv)
                  0001f658    00000006                                   : unified_locale.obj (.text:_ZNKSt8time_getIwSt19istreambuf_iteratorIwSt11char_traitsIwEEE13do_date_orderEv)
                  0001f65e    00000006                                   : unified_locale.obj (.text:_ZNSt15basic_streambufIwSt11char_traitsIwEE8overflowEi)
                  0001f664    00000006                                   : unified_locale.obj (.text:_ZNSt15basic_streambufIwSt11char_traitsIwEE9pbackfailEi)
                  0001f66a    00000006                                   : unified_locale.obj (.text:_ZNSt15basic_streambufIwSt11char_traitsIwEE9underflowEv)
                  0001f670    00000006     clock.obj (.text:_ZNSt18__char_traits_baseIciE3eofEv)
                  0001f676    00000006     rtsv7M4_T_le_v4SPD16_eabi.lib : wmemcpy.obj (.text)
                  0001f67c    00000006                                   : wmemmove.obj (.text)
                  0001f682    00000004     clock.obj (.text:_ZNSs7_M_nullEv)
                  0001f686    00000004     rtsv7M4_T_le_v4SPD16_eabi.lib : unified_locale.obj (.text:_ZNSt13basic_filebufIcSt11char_traitsIcEE9underflowEv)
                  0001f68a    00000004                                   : unified_locale.obj (.text:_ZNSt15basic_streambufIwSt11char_traitsIwEE4syncEv)
                  0001f68e    00000004                                   : unified_locale.obj (.text:_ZNSt15basic_streambufIwSt11char_traitsIwEE9showmanycEv)
                  0001f692    00000004                                   : unified_locale.obj (.text:_ZNSt9basic_iosIwSt11char_traitsIwEED1Ev)
                  0001f696    00000004                                   : error.obj (.text)
                  0001f69a    00000004                                   : placenew.obj (.text)
                  0001f69e    00000004                                   : pre_init.obj (.text)

.const     0    0001f6a8    00002710     
                  0001f6a8    00000400     rtsv7M4_T_le_v4SPD16_eabi.lib : _ctype.obj (.const:$O1$$)
                  0001faa8    000002c8                                   : unified_locale.obj (.const:.string)
                  0001fd70    00000101                                   : ctype.obj (.const:.string:_ctypes_)
                  0001fe71    00000003     clock.obj (.const:.typeinfo:_ZTSSd)
                  0001fe74    000000f0     clock.obj (.const:_ZTVSt18basic_stringstreamIcSt11char_traitsIcESaIcEE)
                  0001ff64    000000f0     rtsv7M4_T_le_v4SPD16_eabi.lib : unified_locale.obj (.const:_ZTVSt9strstream)
                  00020054    000000a8     clock.obj (.const:_ZTVSd)
                  000200fc    00000004     rtsv7M4_T_le_v4SPD16_eabi.lib : unified_locale.obj (.const:.string:_ZZNSt4priv23__write_formatted_timeTIcNS_10_Time_InfoEEEvRNS_16__basic_iostringIT_EERKSt5ctypeIS3_EccRKT0_PKSt2tmEs_0)
                  00020100    00000098                                   : strtod.obj (.const:$O1$$)
                  00020198    00000078                                   : unified_locale.obj (.const:_ZZNSt4priv10_Stl_primeIbE9_S_primesERjE5_list)
                  00020210    00000070                                   : wctype.obj (.const:.string)
                  00020280    00000060                                   : unified_locale.obj (.const:_ZTVSt10istrstream)
                  000202e0    00000060                                   : unified_locale.obj (.const:_ZTVSt10ostrstream)
                  00020340    00000044                                   : unified_locale.obj (.const:_ZTVNSt4priv16stdio_istreambufE)
                  00020384    00000044                                   : unified_locale.obj (.const:_ZTVNSt4priv16stdio_ostreambufE)
                  000203c8    00000044                                   : unified_locale.obj (.const:_ZTVNSt4priv20stdio_streambuf_baseE)
                  0002040c    00000044                                   : unified_locale.obj (.const:_ZTVSt12strstreambuf)
                  00020450    00000044                                   : unified_locale.obj (.const:_ZTVSt13basic_filebufIcSt11char_traitsIcEE)
                  00020494    00000044                                   : unified_locale.obj (.const:_ZTVSt13basic_filebufIwSt11char_traitsIwEE)
                  000204d8    00000044     clock.obj (.const:_ZTVSt15basic_streambufIcSt11char_traitsIcEE)
                  0002051c    00000044     rtsv7M4_T_le_v4SPD16_eabi.lib : unified_locale.obj (.const:_ZTVSt15basic_streambufIwSt11char_traitsIwEE)
                  00020560    00000044     clock.obj (.const:_ZTVSt15basic_stringbufIcSt11char_traitsIcESaIcEE)
                  000205a4    00000043     rtsv7M4_T_le_v4SPD16_eabi.lib : unified_locale.obj (.const:.typeinfo:_ZTSSt15time_get_bynameIcSt19istreambuf_iteratorIcSt11char_traitsIcEEE)
                  000205e7    00000043                                   : unified_locale.obj (.const:.typeinfo:_ZTSSt15time_get_bynameIwSt19istreambuf_iteratorIwSt11char_traitsIwEEE)
                  0002062a    00000043                                   : unified_locale.obj (.const:.typeinfo:_ZTSSt15time_put_bynameIcSt19ostreambuf_iteratorIcSt11char_traitsIcEEE)
                  0002066d    00000043                                   : unified_locale.obj (.const:.typeinfo:_ZTSSt15time_put_bynameIwSt19ostreambuf_iteratorIwSt11char_traitsIwEEE)
                  000206b0    00000040                                   : unified_locale.obj (.const:_ZTVSt12ctype_bynameIwE)
                  000206f0    00000040                                   : _ctype.obj (.const:_ZTVSt5ctypeIwE)
                  00020730    0000003c                                   : unified_locale.obj (.const:.typeinfo:_ZTSSt9money_getIcSt19istreambuf_iteratorIcSt11char_traitsIcEEE)
                  0002076c    0000003c                                   : unified_locale.obj (.const:.typeinfo:_ZTSSt9money_getIwSt19istreambuf_iteratorIwSt11char_traitsIwEEE)
                  000207a8    0000003c                                   : unified_locale.obj (.const:.typeinfo:_ZTSSt9money_putIcSt19ostreambuf_iteratorIcSt11char_traitsIcEEE)
                  000207e4    0000003c                                   : unified_locale.obj (.const:.typeinfo:_ZTSSt9money_putIwSt19ostreambuf_iteratorIwSt11char_traitsIwEEE)
                  00020820    0000003c                                   : unified_locale.obj (.const:_ZTVSt7num_getIcSt19istreambuf_iteratorIcSt11char_traitsIcEEE)
                  0002085c    0000003c                                   : unified_locale.obj (.const:_ZTVSt7num_getIwSt19istreambuf_iteratorIwSt11char_traitsIwEEE)
                  00020898    0000003b                                   : unified_locale.obj (.const:.typeinfo:_ZTSSt8time_getIcSt19istreambuf_iteratorIcSt11char_traitsIcEEE)
                  000208d3    0000003b                                   : unified_locale.obj (.const:.typeinfo:_ZTSSt8time_getIwSt19istreambuf_iteratorIwSt11char_traitsIwEEE)
                  0002090e    0000003b                                   : unified_locale.obj (.const:.typeinfo:_ZTSSt8time_putIcSt19ostreambuf_iteratorIcSt11char_traitsIcEEE)
                  00020949    0000003b                                   : unified_locale.obj (.const:.typeinfo:_ZTSSt8time_putIwSt19ostreambuf_iteratorIwSt11char_traitsIwEEE)
                  00020984    0000003a                                   : unified_locale.obj (.const:.typeinfo:_ZTSSt7num_getIcSt19istreambuf_iteratorIcSt11char_traitsIcEEE)
                  000209be    0000003a                                   : unified_locale.obj (.const:.typeinfo:_ZTSSt7num_getIwSt19istreambuf_iteratorIwSt11char_traitsIwEEE)
                  000209f8    0000003a                                   : unified_locale.obj (.const:.typeinfo:_ZTSSt7num_putIcSt19ostreambuf_iteratorIcSt11char_traitsIcEEE)
                  00020a32    0000003a                                   : unified_locale.obj (.const:.typeinfo:_ZTSSt7num_putIwSt19ostreambuf_iteratorIwSt11char_traitsIwEEE)
                  00020a6c    00000034                                   : unified_locale.obj (.const:_ZTVSt10moneypunctIcLb0EE)
                  00020aa0    00000034                                   : unified_locale.obj (.const:_ZTVSt10moneypunctIcLb1EE)
                  00020ad4    00000034                                   : unified_locale.obj (.const:_ZTVSt10moneypunctIwLb0EE)
                  00020b08    00000034                                   : unified_locale.obj (.const:_ZTVSt10moneypunctIwLb1EE)
                  00020b3c    00000034                                   : unified_locale.obj (.const:_ZTVSt17moneypunct_bynameIcLb0EE)
                  00020b70    00000034                                   : unified_locale.obj (.const:_ZTVSt17moneypunct_bynameIcLb1EE)
                  00020ba4    00000034                                   : unified_locale.obj (.const:_ZTVSt17moneypunct_bynameIwLb0EE)
                  00020bd8    00000034                                   : unified_locale.obj (.const:_ZTVSt17moneypunct_bynameIwLb1EE)
                  00020c0c    00000031     clock.obj (.const:.typeinfo:_ZTSSt18basic_stringstreamIcSt11char_traitsIcESaIcEE)
                  00020c3d    00000003     clock.obj (.const:.typeinfo:_ZTSSi)
                  00020c40    00000030     clock.obj (.const:_ZTVSi)
                  00020c70    00000030     clock.obj (.const:_ZTVSo)
                  00020ca0    00000030     rtsv7M4_T_le_v4SPD16_eabi.lib : unified_locale.obj (.const:_ZTVSt12ctype_bynameIcE)
                  00020cd0    00000030                                   : unified_locale.obj (.const:_ZTVSt13basic_istreamIwSt11char_traitsIwEE)
                  00020d00    00000030                                   : unified_locale.obj (.const:_ZTVSt13basic_ostreamIwSt11char_traitsIwEE)
                  00020d30    00000030                                   : _ctype.obj (.const:_ZTVSt5ctypeIcE)
                  00020d60    00000030                                   : unified_locale.obj (.const:_ZTVSt7num_putIcSt19ostreambuf_iteratorIcSt11char_traitsIcEEE)
                  00020d90    00000030                                   : unified_locale.obj (.const:_ZTVSt7num_putIwSt19ostreambuf_iteratorIwSt11char_traitsIwEEE)
                  00020dc0    0000002e     clock.obj (.const:.typeinfo:_ZTSSt15basic_stringbufIcSt11char_traitsIcESaIcEE)
                  00020dee    00000002     rtsv7M4_T_le_v4SPD16_eabi.lib : typeinfo_.obj (.const:.typeinfo:_ZTSe)
                  00020df0    0000002c                                   : unified_locale.obj (.const:_ZTVSt14codecvt_bynameIcciE)
                  00020e1c    0000002c                                   : unified_locale.obj (.const:_ZTVSt14codecvt_bynameIwciE)
                  00020e48    0000002c                                   : unified_locale.obj (.const:_ZTVSt7codecvtIcciE)
                  00020e74    0000002c                                   : unified_locale.obj (.const:_ZTVSt7codecvtIwciE)
                  00020ea0    00000029     clock.obj (.const:.typeinfo:_ZTSSt15basic_streambufIcSt11char_traitsIcEE)
                  00020ec9    00000029     rtsv7M4_T_le_v4SPD16_eabi.lib : unified_locale.obj (.const:.typeinfo:_ZTSSt15basic_streambufIwSt11char_traitsIwEE)
                  00020ef2    00000002     --HOLE-- [fill = 0]
                  00020ef4    00000028                                   : unified_locale.obj (.const:.typeinfo:_ZTISt8time_getIcSt19istreambuf_iteratorIcSt11char_traitsIcEEE)
                  00020f1c    00000028                                   : unified_locale.obj (.const:.typeinfo:_ZTISt8time_getIwSt19istreambuf_iteratorIwSt11char_traitsIwEEE)
                  00020f44    00000028                                   : unified_locale.obj (.const:.typeinfo:_ZTISt8time_putIcSt19ostreambuf_iteratorIcSt11char_traitsIcEEE)
                  00020f6c    00000028                                   : unified_locale.obj (.const:.typeinfo:_ZTISt8time_putIwSt19ostreambuf_iteratorIwSt11char_traitsIwEEE)
                  00020f94    00000028                                   : typeinfo_.obj (.const:.typeinfo:_ZTSN10__cxxabiv123__fundamental_type_infoE)
                  00020fbc    00000028                                   : unified_locale.obj (.const:_ZTVSt15time_get_bynameIcSt19istreambuf_iteratorIcSt11char_traitsIcEEE)
                  00020fe4    00000028                                   : unified_locale.obj (.const:_ZTVSt15time_get_bynameIwSt19istreambuf_iteratorIwSt11char_traitsIwEEE)
                  0002100c    00000028                                   : unified_locale.obj (.const:_ZTVSt8time_getIcSt19istreambuf_iteratorIcSt11char_traitsIcEEE)
                  00021034    00000028                                   : unified_locale.obj (.const:_ZTVSt8time_getIwSt19istreambuf_iteratorIwSt11char_traitsIwEEE)
                  0002105c    00000027                                   : unified_locale.obj (.const:.typeinfo:_ZTSSt13basic_filebufIcSt11char_traitsIcEE)
                  00021083    00000027                                   : unified_locale.obj (.const:.typeinfo:_ZTSSt13basic_filebufIwSt11char_traitsIwEE)
                  000210aa    00000027                                   : unified_locale.obj (.const:.typeinfo:_ZTSSt13basic_istreamIwSt11char_traitsIwEE)
                  000210d1    00000027                                   : unified_locale.obj (.const:.typeinfo:_ZTSSt13basic_ostreamIwSt11char_traitsIwEE)
                  000210f8    00000026                                   : typeinfo_.obj (.const:.typeinfo:_ZTSN10__cxxabiv121__vmi_class_type_infoE)
                  0002111e    00000025                                   : typeinfo_.obj (.const:.typeinfo:_ZTSN10__cxxabiv120__si_class_type_infoE)
                  00021143    00000024                                   : typeinfo_.obj (.const:.typeinfo:_ZTSN10__cxxabiv119__pointer_type_infoE)
                  00021167    00000001     --HOLE-- [fill = 0]
                  00021168    00000024                                   : unified_locale.obj (.const:_ZTVSt15numpunct_bynameIcE)
                  0002118c    00000024                                   : unified_locale.obj (.const:_ZTVSt15numpunct_bynameIwE)
                  000211b0    00000024                                   : unified_locale.obj (.const:_ZTVSt8numpunctIcE)
                  000211d4    00000024                                   : unified_locale.obj (.const:_ZTVSt8numpunctIwE)
                  000211f8    00000022                                   : typeinfo_.obj (.const:.typeinfo:_ZTSN10__cxxabiv117__class_type_infoE)
                  0002121a    00000022                                   : typeinfo_.obj (.const:.typeinfo:_ZTSN10__cxxabiv117__pbase_type_infoE)
                  0002123c    00000022     clock.obj (.const:.typeinfo:_ZTSSt9basic_iosIcSt11char_traitsIcEE)
                  0002125e    00000022     rtsv7M4_T_le_v4SPD16_eabi.lib : unified_locale.obj (.const:.typeinfo:_ZTSSt9basic_iosIwSt11char_traitsIwEE)
                  00021280    00000020     clock.obj (.const:.typeinfo:_ZTISd)
                  000212a0    00000020     rtsv7M4_T_le_v4SPD16_eabi.lib : unified_locale.obj (.const:.typeinfo:_ZTISt10moneypunctIcLb0EE)
                  000212c0    00000020                                   : unified_locale.obj (.const:.typeinfo:_ZTISt10moneypunctIcLb1EE)
                  000212e0    00000020                                   : unified_locale.obj (.const:.typeinfo:_ZTISt10moneypunctIwLb0EE)
                  00021300    00000020                                   : unified_locale.obj (.const:.typeinfo:_ZTISt10moneypunctIwLb1EE)
                  00021320    00000020                                   : _ctype.obj (.const:.typeinfo:_ZTISt5ctypeIcE)
                  00021340    00000020                                   : _ctype.obj (.const:.typeinfo:_ZTISt5ctypeIwE)
                  00021360    00000020                                   : unified_locale.obj (.const:.typeinfo:_ZTISt7codecvtIcciE)
                  00021380    00000020                                   : unified_locale.obj (.const:.typeinfo:_ZTISt7codecvtIwciE)
                  000213a0    00000020                                   : unified_locale.obj (.const:.typeinfo:_ZTISt8messagesIcE)
                  000213c0    00000020                                   : unified_locale.obj (.const:.typeinfo:_ZTISt8messagesIwE)
                  000213e0    00000020                                   : unified_locale.obj (.const:.typeinfo:_ZTSNSt4priv20stdio_streambuf_baseE)
                  00021400    0000001d                                   : unified_locale.obj (.const:.typeinfo:_ZTSSt17moneypunct_bynameIcLb0EE)
                  0002141d    0000001d                                   : unified_locale.obj (.const:.typeinfo:_ZTSSt17moneypunct_bynameIcLb1EE)
                  0002143a    0000001d                                   : unified_locale.obj (.const:.typeinfo:_ZTSSt17moneypunct_bynameIwLb0EE)
                  00021457    0000001d                                   : unified_locale.obj (.const:.typeinfo:_ZTSSt17moneypunct_bynameIwLb1EE)
                  00021474    0000001c     process_cmd.obj (.const:.string)
                  00021490    0000001c     rtsv7M4_T_le_v4SPD16_eabi.lib : unified_locale.obj (.const:.typeinfo:_ZTSNSt4priv16stdio_istreambufE)
                  000214ac    0000001c                                   : unified_locale.obj (.const:.typeinfo:_ZTSNSt4priv16stdio_ostreambufE)
                  000214c8    0000001c                                   : unified_locale.obj (.const:_ZTVSt14collate_bynameIcE)
                  000214e4    0000001c                                   : unified_locale.obj (.const:_ZTVSt14collate_bynameIwE)
                  00021500    0000001c                                   : unified_locale.obj (.const:_ZTVSt15messages_bynameIcE)
                  0002151c    0000001c                                   : unified_locale.obj (.const:_ZTVSt15messages_bynameIwE)
                  00021538    0000001c                                   : unified_locale.obj (.const:_ZTVSt7collateIcE)
                  00021554    0000001c                                   : unified_locale.obj (.const:_ZTVSt7collateIwE)
                  00021570    0000001c                                   : unified_locale.obj (.const:_ZTVSt8messagesIcE)
                  0002158c    0000001c                                   : unified_locale.obj (.const:_ZTVSt8messagesIwE)
                  000215a8    00000018                                   : unified_locale.obj (.const:.typeinfo:_ZTINSt6locale5facetE)
                  000215c0    00000018     clock.obj (.const:.typeinfo:_ZTISi)
                  000215d8    00000018     clock.obj (.const:.typeinfo:_ZTISo)
                  000215f0    00000018     rtsv7M4_T_le_v4SPD16_eabi.lib : unified_locale.obj (.const:.typeinfo:_ZTISt13basic_istreamIwSt11char_traitsIwEE)
                  00021608    00000018                                   : unified_locale.obj (.const:.typeinfo:_ZTISt13basic_ostreamIwSt11char_traitsIwEE)
                  00021620    00000018                                   : unified_locale.obj (.const:.typeinfo:_ZTSSt14codecvt_bynameIcciE)
                  00021638    00000018                                   : unified_locale.obj (.const:.typeinfo:_ZTSSt14codecvt_bynameIwciE)
                  00021650    00000018                                   : unified_locale.obj (.const:_ZTVSt9money_getIcSt19istreambuf_iteratorIcSt11char_traitsIcEEE)
                  00021668    00000018                                   : unified_locale.obj (.const:_ZTVSt9money_getIwSt19istreambuf_iteratorIwSt11char_traitsIwEEE)
                  00021680    00000018                                   : unified_locale.obj (.const:_ZTVSt9money_putIcSt19ostreambuf_iteratorIcSt11char_traitsIcEEE)
                  00021698    00000018                                   : unified_locale.obj (.const:_ZTVSt9money_putIwSt19ostreambuf_iteratorIwSt11char_traitsIwEEE)
                  000216b0    00000017                                   : unified_locale.obj (.const:.typeinfo:_ZTSNSt4priv9time_initIcEE)
                  000216c7    00000017                                   : unified_locale.obj (.const:.typeinfo:_ZTSNSt4priv9time_initIwEE)
                  000216de    00000017                                   : unified_locale.obj (.const:.typeinfo:_ZTSSt15messages_bynameIcE)
                  000216f5    00000017                                   : unified_locale.obj (.const:.typeinfo:_ZTSSt15messages_bynameIwE)
                  0002170c    00000017                                   : unified_locale.obj (.const:.typeinfo:_ZTSSt15numpunct_bynameIcE)
                  00021723    00000017                                   : unified_locale.obj (.const:.typeinfo:_ZTSSt15numpunct_bynameIwE)
                  0002173a    00000016                                   : unified_locale.obj (.const:.typeinfo:_ZTSSt10moneypunctIcLb0EE)
                  00021750    00000016                                   : unified_locale.obj (.const:.typeinfo:_ZTSSt10moneypunctIcLb1EE)
                  00021766    00000016                                   : unified_locale.obj (.const:.typeinfo:_ZTSSt10moneypunctIwLb0EE)
                  0002177c    00000016                                   : unified_locale.obj (.const:.typeinfo:_ZTSSt10moneypunctIwLb1EE)
                  00021792    00000016                                   : unified_locale.obj (.const:.typeinfo:_ZTSSt14collate_bynameIcE)
                  000217a8    00000016                                   : unified_locale.obj (.const:.typeinfo:_ZTSSt14collate_bynameIwE)
                  000217be    00000014                                   : unified_locale.obj (.const:.typeinfo:_ZTSSt12ctype_bynameIcE)
                  000217d2    00000014                                   : unified_locale.obj (.const:.typeinfo:_ZTSSt12ctype_bynameIwE)
                  000217e6    00000002     --HOLE-- [fill = 0]
                  000217e8    00000014                                   : unified_locale.obj (.const:_ZTVSt15time_put_bynameIcSt19ostreambuf_iteratorIcSt11char_traitsIcEEE)
                  000217fc    00000014                                   : unified_locale.obj (.const:_ZTVSt15time_put_bynameIwSt19ostreambuf_iteratorIwSt11char_traitsIwEEE)
                  00021810    00000014                                   : unified_locale.obj (.const:_ZTVSt8time_putIcSt19ostreambuf_iteratorIcSt11char_traitsIcEEE)
                  00021824    00000014                                   : unified_locale.obj (.const:_ZTVSt8time_putIwSt19ostreambuf_iteratorIwSt11char_traitsIwEEE)
                  00021838    00000013                                   : _ctype.obj (.const:.typeinfo:_ZTSSt14_Refcount_Base)
                  0002184b    00000012                                   : unified_locale.obj (.const:.typeinfo:_ZTSNSt6locale5facetE)
                  0002185d    00000012                                   : unified_locale.obj (.const:.typeinfo:_ZTSSt13messages_base)
                  0002186f    00000011                                   : unified_locale.obj (.const:.typeinfo:_ZTSSt12codecvt_base)
                  00021880    00000011                                   : unified_locale.obj (.const:.typeinfo:_ZTSSt12strstreambuf)
                  00021891    00000003     clock.obj (.const:.typeinfo:_ZTSSo)
                  00021894    00000010     rtsv7M4_T_le_v4SPD16_eabi.lib : _scanfi.obj (.const:$O1$$)
                  000218a4    00000010                                   : typeinfo_.obj (.const:.typeinfo:_ZTIPKe)
                  000218b4    00000010                                   : unified_locale.obj (.const:.typeinfo:_ZTSSt7codecvtIcciE)
                  000218c4    00000010                                   : unified_locale.obj (.const:.typeinfo:_ZTSSt7codecvtIwciE)
                  000218d4    00000010                                   : typeinfo_.obj (.const:_ZTVN10__cxxabiv117__class_type_infoE)
                  000218e4    00000010                                   : typeinfo_.obj (.const:_ZTVN10__cxxabiv119__pointer_type_infoE)
                  000218f4    00000010                                   : typeinfo_.obj (.const:_ZTVN10__cxxabiv120__si_class_type_infoE)
                  00021904    00000010                                   : typeinfo_.obj (.const:_ZTVN10__cxxabiv121__vmi_class_type_infoE)
                  00021914    00000010                                   : typeinfo_.obj (.const:_ZTVN10__cxxabiv123__fundamental_type_infoE)
                  00021924    00000010                                   : unified_locale.obj (.const:_ZTVNSt6locale5facetE)
                  00021934    00000010                                   : unified_locale.obj (.const:_ZTVSt8ios_base)
                  00021944    00000010     clock.obj (.const:_ZTVSt9basic_iosIcSt11char_traitsIcEE)
                  00021954    00000010     rtsv7M4_T_le_v4SPD16_eabi.lib : unified_locale.obj (.const:_ZTVSt9basic_iosIwSt11char_traitsIwEE)
                  00021964    0000000f                                   : unified_locale.obj (.const:.string:_ZZNSaIPNSt4priv16_Slist_node_baseEE11_M_allocateEjRjEs)
                  00021973    0000000f                                   : unified_locale.obj (.const:.string:_ZZNSaIPNSt6locale5facetEE11_M_allocateEjRjEs)
                  00021982    0000000f     clock.obj (.const:.string:_ZZNSaIcE11_M_allocateEjRjEs)
                  00021991    0000000f     rtsv7M4_T_le_v4SPD16_eabi.lib : unified_locale.obj (.const:.string:_ZZNSaIwE11_M_allocateEjRjEs)
                  000219a0    0000000f                                   : unified_locale.obj (.const:.string:_ZZNSaIwE8allocateEjPKvEs)
                  000219af    0000000f                                   : _ctype.obj (.const:.typeinfo:_ZTSSt10ctype_base)
                  000219be    0000000f                                   : unified_locale.obj (.const:.typeinfo:_ZTSSt10istrstream)
                  000219cd    0000000f                                   : unified_locale.obj (.const:.typeinfo:_ZTSSt10money_base)
                  000219dc    0000000f                                   : unified_locale.obj (.const:.typeinfo:_ZTSSt10ostrstream)
                  000219eb    0000000f                                   : unified_locale.obj (.const:.typeinfo:_ZTSSt8messagesIcE)
                  000219fa    0000000f                                   : unified_locale.obj (.const:.typeinfo:_ZTSSt8messagesIwE)
                  00021a09    0000000f                                   : unified_locale.obj (.const:.typeinfo:_ZTSSt8numpunctIcE)
                  00021a18    0000000f                                   : unified_locale.obj (.const:.typeinfo:_ZTSSt8numpunctIwE)
                  00021a27    0000000e                                   : unified_locale.obj (.const:.typeinfo:_ZTSSt7collateIcE)
                  00021a35    0000000e                                   : unified_locale.obj (.const:.typeinfo:_ZTSSt7collateIwE)
                  00021a43    0000000d                                   : unified_locale.obj (.const:.string:_ZZNKSt4priv12_String_baseIcNS_20__iostring_allocatorIcEEE21_M_throw_length_errorEvEs)
                  00021a50    0000000d     clock.obj (.const:.string:_ZZNKSt4priv12_String_baseIcSaIcEE21_M_throw_length_errorEvEs)
                  00021a5d    0000000d     process_cmd.obj (.const:.string:_ZZNKSt4priv12_String_baseIcSaIcEE21_M_throw_out_of_rangeEvEs)
                  00021a6a    0000000d     rtsv7M4_T_le_v4SPD16_eabi.lib : unified_locale.obj (.const:.string:_ZZNKSt4priv12_String_baseIwNS_20__iostring_allocatorIwEEE21_M_throw_length_errorEvEs)
                  00021a77    0000000d                                   : unified_locale.obj (.const:.string:_ZZNKSt4priv12_String_baseIwSaIwEE21_M_throw_length_errorEvEs)
                  00021a84    0000000d                                   : unified_locale.obj (.const:.typeinfo:_ZTSSt9strstream)
                  00021a91    0000000d                                   : unified_locale.obj (.const:.typeinfo:_ZTSSt9time_base)
                  00021a9e    0000000d                                   : typeinfo_.obj (.const:.typeinfo:_ZTSSt9type_info)
                  00021aab    00000001     --HOLE-- [fill = 0]
                  00021aac    0000000c                                   : typeinfo_.obj (.const:.typeinfo:_ZTIN10__cxxabiv117__class_type_infoE)
                  00021ab8    0000000c                                   : typeinfo_.obj (.const:.typeinfo:_ZTIN10__cxxabiv117__pbase_type_infoE)
                  00021ac4    0000000c                                   : typeinfo_.obj (.const:.typeinfo:_ZTIN10__cxxabiv119__pointer_type_infoE)
                  00021ad0    0000000c                                   : typeinfo_.obj (.const:.typeinfo:_ZTIN10__cxxabiv120__si_class_type_infoE)
                  00021adc    0000000c                                   : typeinfo_.obj (.const:.typeinfo:_ZTIN10__cxxabiv121__vmi_class_type_infoE)
                  00021ae8    0000000c                                   : typeinfo_.obj (.const:.typeinfo:_ZTIN10__cxxabiv123__fundamental_type_infoE)
                  00021af4    0000000c                                   : unified_locale.obj (.const:.typeinfo:_ZTINSt4priv16stdio_istreambufE)
                  00021b00    0000000c                                   : unified_locale.obj (.const:.typeinfo:_ZTINSt4priv16stdio_ostreambufE)
                  00021b0c    0000000c                                   : unified_locale.obj (.const:.typeinfo:_ZTINSt4priv20stdio_streambuf_baseE)
                  00021b18    0000000c                                   : unified_locale.obj (.const:.typeinfo:_ZTISt10istrstream)
                  00021b24    0000000c                                   : unified_locale.obj (.const:.typeinfo:_ZTISt10ostrstream)
                  00021b30    0000000c                                   : unified_locale.obj (.const:.typeinfo:_ZTISt12ctype_bynameIcE)
                  00021b3c    0000000c                                   : unified_locale.obj (.const:.typeinfo:_ZTISt12ctype_bynameIwE)
                  00021b48    0000000c                                   : unified_locale.obj (.const:.typeinfo:_ZTISt12strstreambuf)
                  00021b54    0000000c                                   : unified_locale.obj (.const:.typeinfo:_ZTISt13basic_filebufIcSt11char_traitsIcEE)
                  00021b60    0000000c                                   : unified_locale.obj (.const:.typeinfo:_ZTISt13basic_filebufIwSt11char_traitsIwEE)
                  00021b6c    0000000c                                   : unified_locale.obj (.const:.typeinfo:_ZTISt14codecvt_bynameIcciE)
                  00021b78    0000000c                                   : unified_locale.obj (.const:.typeinfo:_ZTISt14codecvt_bynameIwciE)
                  00021b84    0000000c                                   : unified_locale.obj (.const:.typeinfo:_ZTISt14collate_bynameIcE)
                  00021b90    0000000c                                   : unified_locale.obj (.const:.typeinfo:_ZTISt14collate_bynameIwE)
                  00021b9c    0000000c     clock.obj (.const:.typeinfo:_ZTISt15basic_stringbufIcSt11char_traitsIcESaIcEE)
                  00021ba8    0000000c     rtsv7M4_T_le_v4SPD16_eabi.lib : unified_locale.obj (.const:.typeinfo:_ZTISt15messages_bynameIcE)
                  00021bb4    0000000c                                   : unified_locale.obj (.const:.typeinfo:_ZTISt15messages_bynameIwE)
                  00021bc0    0000000c                                   : unified_locale.obj (.const:.typeinfo:_ZTISt15numpunct_bynameIcE)
                  00021bcc    0000000c                                   : unified_locale.obj (.const:.typeinfo:_ZTISt15numpunct_bynameIwE)
                  00021bd8    0000000c                                   : unified_locale.obj (.const:.typeinfo:_ZTISt15time_get_bynameIcSt19istreambuf_iteratorIcSt11char_traitsIcEEE)
                  00021be4    0000000c                                   : unified_locale.obj (.const:.typeinfo:_ZTISt15time_get_bynameIwSt19istreambuf_iteratorIwSt11char_traitsIwEEE)
                  00021bf0    0000000c                                   : unified_locale.obj (.const:.typeinfo:_ZTISt15time_put_bynameIcSt19ostreambuf_iteratorIcSt11char_traitsIcEEE)
                  00021bfc    0000000c                                   : unified_locale.obj (.const:.typeinfo:_ZTISt15time_put_bynameIwSt19ostreambuf_iteratorIwSt11char_traitsIwEEE)
                  00021c08    0000000c                                   : unified_locale.obj (.const:.typeinfo:_ZTISt17moneypunct_bynameIcLb0EE)
                  00021c14    0000000c                                   : unified_locale.obj (.const:.typeinfo:_ZTISt17moneypunct_bynameIcLb1EE)
                  00021c20    0000000c                                   : unified_locale.obj (.const:.typeinfo:_ZTISt17moneypunct_bynameIwLb0EE)
                  00021c2c    0000000c                                   : unified_locale.obj (.const:.typeinfo:_ZTISt17moneypunct_bynameIwLb1EE)
                  00021c38    0000000c     clock.obj (.const:.typeinfo:_ZTISt18basic_stringstreamIcSt11char_traitsIcESaIcEE)
                  00021c44    0000000c     rtsv7M4_T_le_v4SPD16_eabi.lib : unified_locale.obj (.const:.typeinfo:_ZTISt7collateIcE)
                  00021c50    0000000c                                   : unified_locale.obj (.const:.typeinfo:_ZTISt7collateIwE)
                  00021c5c    0000000c                                   : unified_locale.obj (.const:.typeinfo:_ZTISt7num_getIcSt19istreambuf_iteratorIcSt11char_traitsIcEEE)
                  00021c68    0000000c                                   : unified_locale.obj (.const:.typeinfo:_ZTISt7num_getIwSt19istreambuf_iteratorIwSt11char_traitsIwEEE)
                  00021c74    0000000c                                   : unified_locale.obj (.const:.typeinfo:_ZTISt7num_putIcSt19ostreambuf_iteratorIcSt11char_traitsIcEEE)
                  00021c80    0000000c                                   : unified_locale.obj (.const:.typeinfo:_ZTISt7num_putIwSt19ostreambuf_iteratorIwSt11char_traitsIwEEE)
                  00021c8c    0000000c                                   : unified_locale.obj (.const:.typeinfo:_ZTISt8numpunctIcE)
                  00021c98    0000000c                                   : unified_locale.obj (.const:.typeinfo:_ZTISt8numpunctIwE)
                  00021ca4    0000000c     clock.obj (.const:.typeinfo:_ZTISt9basic_iosIcSt11char_traitsIcEE)
                  00021cb0    0000000c     rtsv7M4_T_le_v4SPD16_eabi.lib : unified_locale.obj (.const:.typeinfo:_ZTISt9basic_iosIwSt11char_traitsIwEE)
                  00021cbc    0000000c                                   : unified_locale.obj (.const:.typeinfo:_ZTISt9money_getIcSt19istreambuf_iteratorIcSt11char_traitsIcEEE)
                  00021cc8    0000000c                                   : unified_locale.obj (.const:.typeinfo:_ZTISt9money_getIwSt19istreambuf_iteratorIwSt11char_traitsIwEEE)
                  00021cd4    0000000c                                   : unified_locale.obj (.const:.typeinfo:_ZTISt9money_putIcSt19ostreambuf_iteratorIcSt11char_traitsIcEEE)
                  00021ce0    0000000c                                   : unified_locale.obj (.const:.typeinfo:_ZTISt9money_putIwSt19ostreambuf_iteratorIwSt11char_traitsIwEEE)
                  00021cec    0000000c                                   : unified_locale.obj (.const:.typeinfo:_ZTISt9strstream)
                  00021cf8    0000000c                                   : _ctype.obj (.const:.typeinfo:_ZTSSt5ctypeIcE)
                  00021d04    0000000c                                   : _ctype.obj (.const:.typeinfo:_ZTSSt5ctypeIwE)
                  00021d10    0000000c                                   : unified_locale.obj (.const:.typeinfo:_ZTSSt8ios_base)
                  00021d1c    00000008                                   : unified_locale.obj (.const:.typeinfo:_ZTINSt4priv9time_initIcEE)
                  00021d24    00000008                                   : unified_locale.obj (.const:.typeinfo:_ZTINSt4priv9time_initIwEE)
                  00021d2c    00000008                                   : _ctype.obj (.const:.typeinfo:_ZTISt10ctype_base)
                  00021d34    00000008                                   : unified_locale.obj (.const:.typeinfo:_ZTISt10money_base)
                  00021d3c    00000008                                   : unified_locale.obj (.const:.typeinfo:_ZTISt12codecvt_base)
                  00021d44    00000008                                   : unified_locale.obj (.const:.typeinfo:_ZTISt13messages_base)
                  00021d4c    00000008                                   : _ctype.obj (.const:.typeinfo:_ZTISt14_Refcount_Base)
                  00021d54    00000008     clock.obj (.const:.typeinfo:_ZTISt15basic_streambufIcSt11char_traitsIcEE)
                  00021d5c    00000008     rtsv7M4_T_le_v4SPD16_eabi.lib : unified_locale.obj (.const:.typeinfo:_ZTISt15basic_streambufIwSt11char_traitsIwEE)
                  00021d64    00000008                                   : unified_locale.obj (.const:.typeinfo:_ZTISt8ios_base)
                  00021d6c    00000008                                   : unified_locale.obj (.const:.typeinfo:_ZTISt9time_base)
                  00021d74    00000008                                   : typeinfo_.obj (.const:.typeinfo:_ZTISt9type_info)
                  00021d7c    00000008                                   : typeinfo_.obj (.const:.typeinfo:_ZTIe)
                  00021d84    00000007                                   : unified_locale.obj (.const:.string:_ZZNKSt4priv12_Vector_baseIPNS_16_Slist_node_baseESaIS2_EE21_M_throw_length_errorEvEs)
                  00021d8b    00000007                                   : unified_locale.obj (.const:.string:_ZZNKSt4priv12_Vector_baseIPNSt6locale5facetESaIS3_EE21_M_throw_length_errorEvEs)
                  00021d92    00000006                                   : unified_locale.obj (.const:.string:_ZZNSt4priv23__write_formatted_timeTIcNS_10_Time_InfoEEEvRNS_16__basic_iostringIT_EERKSt5ctypeIS3_EccRKT0_PKSt2tmEs)
                  00021d98    00000006                                   : unified_locale.obj (.const:.string:_ZZNSt4priv23__write_formatted_timeTIwNS_11_WTime_InfoEEEvRNS_16__basic_iostringIT_EERKSt5ctypeIS3_EccRKT0_PKSt2tmEs)
                  00021d9e    00000002     --HOLE-- [fill = 0]
                  00021da0    00000006                                   : setlocale.obj (.const:.string)
                  00021da6    00000005                                   : unified_locale.obj (.const:.string:_ZZNSt4priv23__write_formatted_timeTIcNS_10_Time_InfoEEEvRNS_16__basic_iostringIT_EERKSt5ctypeIS3_EccRKT0_PKSt2tmEs_1)
                  00021dab    00000005                                   : unified_locale.obj (.const:.string:_ZZNSt4priv23__write_formatted_timeTIwNS_11_WTime_InfoEEEvRNS_16__basic_iostringIT_EERKSt5ctypeIS3_EccRKT0_PKSt2tmEs_1)
                  00021db0    00000004                                   : unified_locale.obj (.const:.string:_ZZNSt4priv23__write_formatted_timeTIwNS_11_WTime_InfoEEEvRNS_16__basic_iostringIT_EERKSt5ctypeIS3_EccRKT0_PKSt2tmEs_0)
                  00021db4    00000004                                   : typeinfo_.obj (.const:.typeinfo:_ZTSPKe)

.init_array 
*          0    00021db8    00000008     
                  00021db8    00000004     main.obj (.init_array)
                  00021dbc    00000004     rtsv7M4_T_le_v4SPD16_eabi.lib : unified_locale.obj (.init_array)

.cinit     0    00021dc0    00000470     
                  00021dc0    0000044a     (.cinit..data.load) [load image, compression = lzss]
                  0002220a    00000002     --HOLE-- [fill = 0]
                  0002220c    0000000c     (__TI_handler_table)
                  00022218    00000008     (.cinit..bss.load) [load image, compression = zero_init]
                  00022220    00000010     (__TI_cinit_table)

.sysmem    0    20000000    00010000     UNINITIALIZED
                  20000000    00000008     rtsv7M4_T_le_v4SPD16_eabi.lib : memory.obj (.sysmem)
                  20000008    0000fff8     --HOLE--

.data      0    20010000    000013b0     UNINITIALIZED
                  20010000    000009f0     rtsv7M4_T_le_v4SPD16_eabi.lib : unified_locale.obj (.data:$O2$$)
                  200109f0    000006c0                                   : unified_locale.obj (.data:$O1$$)
                  200110b0    000000f0                                   : defs.obj (.data:_ftable)
                  200111a0    00000080                                   : wctype.obj (.data:$O1$$)
                  20011220    00000078                                   : write.obj (.data:_device)
                  20011298    00000050                                   : write.obj (.data:_stream)
                  200112e8    00000048     process_cmd.obj (.data:CmdTable)
                  20011330    00000034     rtsv7M4_T_le_v4SPD16_eabi.lib : setlocale.obj (.data:C_locale)
                  20011364    00000010                                   : defs.obj (.data)
                  20011374    0000000c                                   : exit.obj (.data:$O1$$)
                  20011380    0000000c                                   : memory.obj (.data:$O1$$)
                  2001138c    00000008                                   : _lock.obj (.data:$O1$$)
                  20011394    00000004     main.obj (.data)
                  20011398    00000004     rtsv7M4_T_le_v4SPD16_eabi.lib : dtor_list.obj (.data)
                  2001139c    00000004                                   : errno.obj (.data)
                  200113a0    00000004                                   : fopen.obj (.data)
                  200113a4    00000004                                   : open.obj (.data)
                  200113a8    00000004                                   : stkdepth_vars.obj (.data)
                  200113ac    00000004                                   : vars.obj (.data)

.stack     0    200113b0    00000400     UNINITIALIZED
                  200113b0    00000400     --HOLE--

.bss       0    200117b0    00000287     UNINITIALIZED
                  200117b0    00000120     rtsv7M4_T_le_v4SPD16_eabi.lib : trgmsg.obj (.bss:_CIOBUF_)
                  200118d0    000000a0     (.common:__TI_tmpnams)
                  20011970    00000028     main.obj (.bss:stopwatch)
                  20011998    00000028     main.obj (.bss:tod)
                  200119c0    00000014     main.obj (.bss:UART0_RX_BUFFER)
                  200119d4    00000014     main.obj (.bss:UART0_TX_BUFFER)
                  200119e8    00000008     (.common:parmbuf)
                  200119f0    00000004     rtsv7M4_T_le_v4SPD16_eabi.lib : unified_locale.obj (.bss:_ZNSt7num_getIcSt19istreambuf_iteratorIcSt11char_traitsIcEEE2idE)
                  200119f4    00000004                                   : unified_locale.obj (.bss:_ZNSt7num_getIwSt19istreambuf_iteratorIwSt11char_traitsIwEEE2idE)
                  200119f8    00000004                                   : unified_locale.obj (.bss:_ZNSt7num_putIcSt19ostreambuf_iteratorIcSt11char_traitsIcEEE2idE)
                  200119fc    00000004                                   : unified_locale.obj (.bss:_ZNSt7num_putIwSt19ostreambuf_iteratorIwSt11char_traitsIwEEE2idE)
                  20011a00    00000004                                   : unified_locale.obj (.bss:_ZNSt8time_getIcSt19istreambuf_iteratorIcSt11char_traitsIcEEE2idE)
                  20011a04    00000004                                   : unified_locale.obj (.bss:_ZNSt8time_getIwSt19istreambuf_iteratorIwSt11char_traitsIwEEE2idE)
                  20011a08    00000004                                   : unified_locale.obj (.bss:_ZNSt8time_putIcSt19ostreambuf_iteratorIcSt11char_traitsIcEEE2idE)
                  20011a0c    00000004                                   : unified_locale.obj (.bss:_ZNSt8time_putIwSt19ostreambuf_iteratorIwSt11char_traitsIwEEE2idE)
                  20011a10    00000004                                   : unified_locale.obj (.bss:_ZNSt9money_getIcSt19istreambuf_iteratorIcSt11char_traitsIcEEE2idE)
                  20011a14    00000004                                   : unified_locale.obj (.bss:_ZNSt9money_getIwSt19istreambuf_iteratorIwSt11char_traitsIwEEE2idE)
                  20011a18    00000004                                   : unified_locale.obj (.bss:_ZNSt9money_putIcSt19ostreambuf_iteratorIcSt11char_traitsIcEEE2idE)
                  20011a1c    00000004                                   : unified_locale.obj (.bss:_ZNSt9money_putIwSt19ostreambuf_iteratorIwSt11char_traitsIwEEE2idE)
                  20011a20    00000004     (.common:GotData)
                  20011a24    00000004     (.common:_ZSt16__dummy_typeinfo)
                  20011a28    00000004     (.common:__dso_handle)
                  20011a2c    00000004     (.common:count)
                  20011a30    00000001                                   : unified_locale.obj (.bss:_ZSt8_IosInit)
                  20011a31    00000001                                   : unified_locale.obj (.bss:_ZZSt22_Stl_get_global_localevE4init)
                  20011a32    00000001                                   : unified_locale.obj (.bss:_ZZSt23_Stl_get_classic_localevE4init)
                  20011a33    00000001                                   : unified_locale.obj (.bss:lock$16)
                  20011a34    00000001     (.common:Data)
                  20011a35    00000001     (.common:elapsed)
                  20011a36    00000001     (.common:processing)

MODULE SUMMARY

       Module                          code     ro data   rw data
       ------                          ----     -------   -------
    .\
       clock.obj                       12172    987       6      
       process_cmd.obj                 1928     41        72     
       main.obj                        530      4         129    
       tm4c1294ncpdt_startup_ccs.obj   12       520       0      
       uart.obj                        404      0         0      
       queue.obj                       220      0         0      
       systick.obj                     108      0         0      
    +--+-------------------------------+--------+---------+---------+
       Total:                          15374    1552      207    
                                                                 
    C:\ti\ccsv7\tools\compiler\ti-cgt-arm_16.9.4.LTS\lib\rtsv7M4_T_le_v4SPD16_eabi.lib
       unified_locale.obj              89414    9273      1780   
       _printfi.obj                    4414     0         0      
       _ctype.obj                      1174     1274      0      
       _scanfi.obj                     2200     16        0      
       rtti.obj                        1488     0         0      
       memory.obj                      976      0         12     
       vec_newdel.obj                  924      0         0      
       strtod.obj                      572      152       0      
       wctype.obj                      456      112       128    
       typeinfo_.obj                   188      422       4      
       ll_div_t2.obj                   542      0         0      
       ull_div_t2.obj                  500      0         0      
       strtoll.obj                     476      0         0      
       fopen.obj                       452      0         4      
       fd_add_t2.obj                   438      0         0      
       defs.obj                        0        0         416    
       trgmsg.obj                      104      0         288    
       fwrite.obj                      364      0         0      
       strtoull.obj                    348      0         0      
       fd_div_t2.obj                   310      0         0      
       fputs.obj                       308      0         0      
       strtol.obj                      308      0         0      
       strtoul.obj                     276      0         0      
       fd_cmp_t2.obj                   268      0         0      
       ctype.obj                       0        257       0      
       dtor_list.obj                   244      0         8      
       fd_mul_t2.obj                   252      0         0      
       s_scalbn.obj                    252      0         0      
       write.obj                       40       0         200    
       fread.obj                       236      0         0      
       setvbuf.obj                     220      0         0      
       sscanf.obj                      204      0         0      
       fflush.obj                      200      0         0      
       open.obj                        188      0         4      
       _io_perm.obj                    172      0         0      
       _bufread.obj                    160      0         0      
       memcpy_t2.obj                   156      0         0      
       fclose.obj                      152      0         0      
       fputc.obj                       152      0         0      
       snprintf.obj                    148      0         0      
       fgetc.obj                       144      0         0      
       ungetc.obj                      128      0         0      
       memset_t2.obj                   122      0         0      
       autoinit.obj                    112      0         0      
       getdevice.obj                   112      0         0      
       fd_tos_t2.obj                   110      0         0      
       hostrename.obj                  108      0         0      
       copy_decompress_lzss.obj        104      0         0      
       hostlseek.obj                   104      0         0      
       hostopen.obj                    96       0         8      
       setlocale.obj                   44       6         52     
       fseek.obj                       100      0         0      
       ftell.obj                       100      0         0      
       s_frexp.obj                     100      0         0      
       exit.obj                        84       0         12     
       sprintf.obj                     96       0         0      
       close.obj                       92       0         0      
       hostread.obj                    88       0         0      
       hostwrite.obj                   88       0         0      
       boot.obj                        84       0         0      
       ltoa.obj                        84       0         0      
       atoi.obj                        76       0         0      
       cpy_tbl.obj                     76       0         0      
       dll_main.obj                    72       0         0      
       fd_toi_t2.obj                   72       0         0      
       hostclose.obj                   68       0         0      
       hostunlink.obj                  68       0         0      
       u_divt2.obj                     64       0         0      
       strncpy.obj                     54       0         0      
       new_.obj                        48       0         0      
       i_tofd_t2.obj                   46       0         0      
       wcsncpy.obj                     46       0         0      
       unlink.obj                      44       0         0      
       fgetpos.obj                     40       0         0      
       lseek.obj                       40       0         0      
       read.obj                        40       0         0      
       memcmp.obj                      36       0         0      
       memmov.obj                      36       0         0      
       guard.obj                       32       0         0      
       memchr.obj                      32       0         0      
       wcscmp.obj                      32       0         0      
       _lock.obj                       20       0         8      
       memccpy.obj                     28       0         0      
       args_main.obj                   24       0         0      
       ll_mul_t2.obj                   24       0         0      
       strcmp.obj                      24       0         0      
       strrchr.obj                     24       0         0      
       strchr.obj                      22       0         0      
       s_copysign.obj                  20       0         0      
       strcpy.obj                      20       0         0      
       strlen.obj                      20       0         0      
       wmemset.obj                     20       0         0      
       wcslen.obj                      18       0         0      
       setbuf.obj                      16       0         0      
       toupper.obj                     16       0         0      
       copy_decompress_none.obj        14       0         0      
       copy_zero_init.obj              12       0         0      
       delete.obj                      8        0         0      
       fsetpos.obj                     8        0         0      
       wmemcpy.obj                     6        0         0      
       wmemmove.obj                    6        0         0      
       errno.obj                       0        0         4      
       error.obj                       4        0         0      
       placenew.obj                    4        0         0      
       pre_init.obj                    4        0         0      
       stkdepth_vars.obj               0        0         4      
       vars.obj                        0        0         4      
       i_div0.obj                      2        0         0      
       l_div0.obj                      2        0         0      
       mpu_init.obj                    2        0         0      
       newhandler.obj                  2        0         0      
       startup.obj                     2        0         0      
    +--+-------------------------------+--------+---------+---------+
       Total:                          112770   11512     2936   
                                                                 
       Heap:                           0        0         65536  
       Stack:                          0        0         1024   
       Linker Generated:               0        1134      0      
    +--+-------------------------------+--------+---------+---------+
       Grand Total:                    128144   14198     69703  


LINKER GENERATED COPY TABLES

__TI_cinit_table @ 00022220 records: 2, size/record: 8, table size: 16
	.data: load addr=00021dc0, load size=0000044a bytes, run addr=20010000, run size=000013b0 bytes, compression=lzss
	.bss: load addr=00022218, load size=00000008 bytes, run addr=200117b0, run size=00000287 bytes, compression=zero_init


LINKER GENERATED HANDLER TABLE

__TI_handler_table @ 0002220c records: 3, size/record: 4, table size: 12
	index: 0, handler: __TI_decompress_lzss
	index: 1, handler: __TI_decompress_none
	index: 2, handler: __TI_zero_init


GLOBAL SYMBOLS: SORTED ALPHABETICALLY BY Name 

address   name                                                                                                                                                                                                                                                 
-------   ----                                                                                                                                                                                                                                                 
0001c109  C$$EXIT                                                                                                                                                                                                                                              
0001b403  C$$IO$$                                                                                                                                                                                                                                              
200112e8  CmdTable                                                                                                                                                                                                                                             
20011a34  Data                                                                                                                                                                                                                                                 
20011a20  GotData                                                                                                                                                                                                                                              
0001cc05  HOSTclose                                                                                                                                                                                                                                            
0001b36d  HOSTlseek                                                                                                                                                                                                                                            
0001ba21  HOSTopen                                                                                                                                                                                                                                             
0001bdb5  HOSTread                                                                                                                                                                                                                                             
0001b01d  HOSTrename                                                                                                                                                                                                                                           
0001cc49  HOSTunlink                                                                                                                                                                                                                                           
0001be0d  HOSTwrite                                                                                                                                                                                                                                            
0001f52d  ResetISR                                                                                                                                                                                                                                             
00021db8  SHT$$INIT_ARRAY$$Base                                                                                                                                                                                                                                
00021dc0  SHT$$INIT_ARRAY$$Limit                                                                                                                                                                                                                               
0001b0d1  SysTickHandler                                                                                                                                                                                                                                       
000112c1  UART0_IntHandler                                                                                                                                                                                                                                     
200119c0  UART0_RX_BUFFER                                                                                                                                                                                                                                      
200119d4  UART0_TX_BUFFER                                                                                                                                                                                                                                      
00004221  _Locale_abbrev_dayofweek                                                                                                                                                                                                                             
00004237  _Locale_abbrev_monthname                                                                                                                                                                                                                             
0000424b  _Locale_am_str                                                                                                                                                                                                                                       
00007ce7  _Locale_catclose                                                                                                                                                                                                                                     
00001951  _Locale_catgets                                                                                                                                                                                                                                      
00001a21  _Locale_catopen                                                                                                                                                                                                                                      
00000cb9  _Locale_codecvt_create                                                                                                                                                                                                                               
00007ce5  _Locale_codecvt_destroy                                                                                                                                                                                                                              
00000be3  _Locale_codecvt_name                                                                                                                                                                                                                                 
00000c71  _Locale_collate_create                                                                                                                                                                                                                               
00000c7b  _Locale_collate_default                                                                                                                                                                                                                              
00007ce3  _Locale_collate_destroy                                                                                                                                                                                                                              
00000bc5  _Locale_collate_name                                                                                                                                                                                                                                 
00000cd5  _Locale_ctype_create                                                                                                                                                                                                                                 
00000cdf  _Locale_ctype_default                                                                                                                                                                                                                                
00007ce1  _Locale_ctype_destroy                                                                                                                                                                                                                                
00000bed  _Locale_ctype_name                                                                                                                                                                                                                                   
00005ea1  _Locale_ctype_table                                                                                                                                                                                                                                  
00001dc9  _Locale_currency_symbol                                                                                                                                                                                                                              
00003f07  _Locale_d_fmt                                                                                                                                                                                                                                        
00003f0b  _Locale_d_t_fmt                                                                                                                                                                                                                                      
0000227d  _Locale_decimal_point                                                                                                                                                                                                                                
00000c67  _Locale_extract_collate_name                                                                                                                                                                                                                         
00000cc9  _Locale_extract_ctype_name                                                                                                                                                                                                                           
00000c13  _Locale_extract_messages_name                                                                                                                                                                                                                        
00000c4b  _Locale_extract_monetary_name                                                                                                                                                                                                                        
00000ca1  _Locale_extract_numeric_name                                                                                                                                                                                                                         
00000c83  _Locale_extract_time_name                                                                                                                                                                                                                            
00002227  _Locale_false                                                                                                                                                                                                                                        
00007cdf  _Locale_final                                                                                                                                                                                                                                        
00001c6f  _Locale_frac_digits                                                                                                                                                                                                                                  
0000422d  _Locale_full_dayofweek                                                                                                                                                                                                                               
00004241  _Locale_full_monthname                                                                                                                                                                                                                               
00006479  _Locale_get_collate_hint                                                                                                                                                                                                                             
00005e9d  _Locale_get_ctype_hint                                                                                                                                                                                                                               
00007cdb  _Locale_get_messages_hint                                                                                                                                                                                                                            
000065c5  _Locale_get_monetary_hint                                                                                                                                                                                                                            
00006095  _Locale_get_numeric_hint                                                                                                                                                                                                                             
000062bd  _Locale_get_time_hint                                                                                                                                                                                                                                
000021b7  _Locale_grouping                                                                                                                                                                                                                                     
00000209  _Locale_init                                                                                                                                                                                                                                         
00001d45  _Locale_int_curr_symbol                                                                                                                                                                                                                              
00001b99  _Locale_int_frac_digits                                                                                                                                                                                                                              
00003f0f  _Locale_long_d_fmt                                                                                                                                                                                                                                   
00003f13  _Locale_long_d_t_fmt                                                                                                                                                                                                                                 
00000c39  _Locale_messages_create                                                                                                                                                                                                                              
00000c43  _Locale_messages_default                                                                                                                                                                                                                             
00007cd9  _Locale_messages_destroy                                                                                                                                                                                                                             
00000bb1  _Locale_messages_name                                                                                                                                                                                                                                
00001c2d  _Locale_mon_decimal_point                                                                                                                                                                                                                            
00001c0d  _Locale_mon_grouping                                                                                                                                                                                                                                 
00001c25  _Locale_mon_thousands_sep                                                                                                                                                                                                                            
00000c55  _Locale_monetary_create                                                                                                                                                                                                                              
00000c5f  _Locale_monetary_default                                                                                                                                                                                                                             
00007cd7  _Locale_monetary_destroy                                                                                                                                                                                                                             
00000bbb  _Locale_monetary_name                                                                                                                                                                                                                                
000065e5  _Locale_n_cs_precedes                                                                                                                                                                                                                                
000065e9  _Locale_n_sep_by_space                                                                                                                                                                                                                               
000065e1  _Locale_n_sign_posn                                                                                                                                                                                                                                  
00001d11  _Locale_negative_sign                                                                                                                                                                                                                                
00000ca7  _Locale_numeric_create                                                                                                                                                                                                                               
00000cb1  _Locale_numeric_default                                                                                                                                                                                                                              
00007cd5  _Locale_numeric_destroy                                                                                                                                                                                                                              
00000bd9  _Locale_numeric_name                                                                                                                                                                                                                                 
000065d5  _Locale_p_cs_precedes                                                                                                                                                                                                                                
000065d9  _Locale_p_sep_by_space                                                                                                                                                                                                                               
000065cd  _Locale_p_sign_posn                                                                                                                                                                                                                                  
0000424f  _Locale_pm_str                                                                                                                                                                                                                                       
00001d29  _Locale_positive_sign                                                                                                                                                                                                                                
00002599  _Locale_strcmp                                                                                                                                                                                                                                       
000024d1  _Locale_strxfrm                                                                                                                                                                                                                                      
00003f03  _Locale_t_fmt                                                                                                                                                                                                                                        
00002275  _Locale_thousands_sep                                                                                                                                                                                                                                
00000c89  _Locale_time_create                                                                                                                                                                                                                                  
00000c93  _Locale_time_default                                                                                                                                                                                                                                 
00007cd3  _Locale_time_destroy                                                                                                                                                                                                                                 
00000bcf  _Locale_time_name                                                                                                                                                                                                                                    
00002ba3  _Locale_tolower                                                                                                                                                                                                                                      
00002bcf  _Locale_toupper                                                                                                                                                                                                                                      
0000223f  _Locale_true                                                                                                                                                                                                                                         
00003ed5  _WLocale_abbrev_dayofweek                                                                                                                                                                                                                            
00003ee7  _WLocale_abbrev_monthname                                                                                                                                                                                                                            
00003efb  _WLocale_am_str                                                                                                                                                                                                                                      
00002a35  _WLocale_ctype                                                                                                                                                                                                                                       
00001cb3  _WLocale_currency_symbol                                                                                                                                                                                                                             
000021e1  _WLocale_decimal_point                                                                                                                                                                                                                               
0000217b  _WLocale_false                                                                                                                                                                                                                                       
00003edd  _WLocale_full_dayofweek                                                                                                                                                                                                                              
00003ef1  _WLocale_full_monthname                                                                                                                                                                                                                              
00001bef  _WLocale_int_curr_symbol                                                                                                                                                                                                                             
0000279f  _WLocale_is_stateless                                                                                                                                                                                                                                
00002751  _WLocale_mb_cur_max                                                                                                                                                                                                                                  
000027ad  _WLocale_mb_cur_min                                                                                                                                                                                                                                  
00002759  _WLocale_mbtowc                                                                                                                                                                                                                                      
00007ccf  _WLocale_mon_decimal_point                                                                                                                                                                                                                           
00007ccb  _WLocale_mon_thousands_sep                                                                                                                                                                                                                           
00001ba1  _WLocale_negative_sign                                                                                                                                                                                                                               
00003eff  _WLocale_pm_str                                                                                                                                                                                                                                      
00001bc3  _WLocale_positive_sign                                                                                                                                                                                                                               
000023e5  _WLocale_strcmp                                                                                                                                                                                                                                      
00002333  _WLocale_strxfrm                                                                                                                                                                                                                                     
000021d9  _WLocale_thousands_sep                                                                                                                                                                                                                               
000029d5  _WLocale_tolower                                                                                                                                                                                                                                     
00002a05  _WLocale_toupper                                                                                                                                                                                                                                     
00002199  _WLocale_true                                                                                                                                                                                                                                        
000027d5  _WLocale_unshift                                                                                                                                                                                                                                     
00002849  _WLocale_wctomb                                                                                                                                                                                                                                      
00011221  _Z10UART0_Initv                                                                                                                                                                                                                                      
0000b219  _Z11CMD_Processv                                                                                                                                                                                                                                     
0001b095  _Z11SysTickStopv                                                                                                                                                                                                                                     
0001b089  _Z12SysTickStartv                                                                                                                                                                                                                                    
0001130d  _Z12UART0_printfSsb                                                                                                                                                                                                                                  
0001b0a1  _Z13SysTickPeriodm                                                                                                                                                                                                                                   
00000c1d  _Z14_Locale_createPKcPi                                                                                                                                                                                                                              
00011285  _Z15InterruptEnablem                                                                                                                                                                                                                                 
000112ad  _Z15UART0_IntEnablem                                                                                                                                                                                                                                 
0001b0b3  _Z16SysTickIntEnablev                                                                                                                                                                                                                                
0001b0c5  _Z17SysTickIntDisablev                                                                                                                                                                                                                               
0001af43  _Z21__default_new_handlerv                                                                                                                                                                                                                           
0000b66b  _Z6CMD_goiSs                                                                                                                                                                                                                                         
0000b6ad  _Z7CMD_clsiSs                                                                                                                                                                                                                                        
0000b461  _Z7CMD_setiSs                                                                                                                                                                                                                                        
0000b3ed  _Z8CMD_helpiSs                                                                                                                                                                                                                                       
0000b425  _Z8CMD_timeiSs                                                                                                                                                                                                                                       
00017e49  _ZN10__cxxabiv116__enum_type_infoD0Ev                                                                                                                                                                                                                
00017e47  _ZN10__cxxabiv116__enum_type_infoD1Ev                                                                                                                                                                                                                
00017e47  _ZN10__cxxabiv116__enum_type_infoD2Ev                                                                                                                                                                                                                
00017e3f  _ZN10__cxxabiv117__array_type_infoD0Ev                                                                                                                                                                                                               
00017e3d  _ZN10__cxxabiv117__array_type_infoD1Ev                                                                                                                                                                                                               
00017e3d  _ZN10__cxxabiv117__array_type_infoD2Ev                                                                                                                                                                                                               
00017e35  _ZN10__cxxabiv117__class_type_infoD0Ev                                                                                                                                                                                                               
00017e33  _ZN10__cxxabiv117__class_type_infoD1Ev                                                                                                                                                                                                               
00017e33  _ZN10__cxxabiv117__class_type_infoD2Ev                                                                                                                                                                                                               
00017e2b  _ZN10__cxxabiv117__pbase_type_infoD0Ev                                                                                                                                                                                                               
00017e29  _ZN10__cxxabiv117__pbase_type_infoD1Ev                                                                                                                                                                                                               
00017e29  _ZN10__cxxabiv117__pbase_type_infoD2Ev                                                                                                                                                                                                               
00017e21  _ZN10__cxxabiv119__pointer_type_infoD0Ev                                                                                                                                                                                                             
00017e1f  _ZN10__cxxabiv119__pointer_type_infoD1Ev                                                                                                                                                                                                             
00017e1f  _ZN10__cxxabiv119__pointer_type_infoD2Ev                                                                                                                                                                                                             
00017e17  _ZN10__cxxabiv120__function_type_infoD0Ev                                                                                                                                                                                                            
00017e15  _ZN10__cxxabiv120__function_type_infoD1Ev                                                                                                                                                                                                            
00017e15  _ZN10__cxxabiv120__function_type_infoD2Ev                                                                                                                                                                                                            
00017e0d  _ZN10__cxxabiv120__si_class_type_infoD0Ev                                                                                                                                                                                                            
00017e0b  _ZN10__cxxabiv120__si_class_type_infoD1Ev                                                                                                                                                                                                            
00017e0b  _ZN10__cxxabiv120__si_class_type_infoD2Ev                                                                                                                                                                                                            
00017e03  _ZN10__cxxabiv121__vmi_class_type_infoD0Ev                                                                                                                                                                                                           
00017e01  _ZN10__cxxabiv121__vmi_class_type_infoD1Ev                                                                                                                                                                                                           
00017e01  _ZN10__cxxabiv121__vmi_class_type_infoD2Ev                                                                                                                                                                                                           
00017df9  _ZN10__cxxabiv123__fundamental_type_infoD0Ev                                                                                                                                                                                                         
00017df7  _ZN10__cxxabiv123__fundamental_type_infoD1Ev                                                                                                                                                                                                         
00017df7  _ZN10__cxxabiv123__fundamental_type_infoD2Ev                                                                                                                                                                                                         
00017def  _ZN10__cxxabiv129__pointer_to_member_type_infoD0Ev                                                                                                                                                                                                   
00017ded  _ZN10__cxxabiv129__pointer_to_member_type_infoD1Ev                                                                                                                                                                                                   
00017ded  _ZN10__cxxabiv129__pointer_to_member_type_infoD2Ev                                                                                                                                                                                                   
00010f39  _ZN5clock3setESsSsSs                                                                                                                                                                                                                                 
00010f79  _ZN5clock5resetEv                                                                                                                                                                                                                                    
00010fa1  _ZN5clock6updateEv                                                                                                                                                                                                                                   
0001100f  _ZN5clock7displayEv                                                                                                                                                                                                                                  
00010ee9  _ZN5clockC1Ev                                                                                                                                                                                                                                        
00010ee9  _ZN5clockC2Ev                                                                                                                                                                                                                                        
00010f29  _ZN5clockD1Ev                                                                                                                                                                                                                                        
00010f29  _ZN5clockD2Ev                                                                                                                                                                                                                                        
00016479  _ZN5queue7dequeueEv                                                                                                                                                                                                                                  
0001642d  _ZN5queue7enqueueEc                                                                                                                                                                                                                                  
000163f1  _ZN5queueC1Ei                                                                                                                                                                                                                                        
000163f1  _ZN5queueC2Ei                                                                                                                                                                                                                                        
0001641d  _ZN5queueD1Ev                                                                                                                                                                                                                                        
0001641d  _ZN5queueD2Ev                                                                                                                                                                                                                                        
000164b9  _ZNK5queue5emptyEv                                                                                                                                                                                                                                   
0001f13d  _ZNKSaIcE8max_sizeEv                                                                                                                                                                                                                                 
0001def1  _ZNKSbIcSt11char_traitsIcENSt4priv20__iostring_allocatorIcEEE4findEcj                                                                                                                                                                                
0001f14b  _ZNKSi6sentrycvbEv                                                                                                                                                                                                                                   
0001f159  _ZNKSo6sentrycvbEv                                                                                                                                                                                                                                   
0001ef2d  _ZNKSs13get_allocatorEv                                                                                                                                                                                                                              
0001f167  _ZNKSs17_M_construct_nullEPc                                                                                                                                                                                                                         
0001f389  _ZNKSs4dataEv                                                                                                                                                                                                                                        
0001ebb5  _ZNKSs4sizeEv                                                                                                                                                                                                                                        
0001f395  _ZNKSs5c_strEv                                                                                                                                                                                                                                       
0001e561  _ZNKSs5emptyEv                                                                                                                                                                                                                                       
0001f3a1  _ZNKSs6lengthEv                                                                                                                                                                                                                                      
0001d709  _ZNKSs6substrEjj                                                                                                                                                                                                                                     
0001f3ad  _ZNKSs8max_sizeEv                                                                                                                                                                                                                                    
00007cc7  _ZNKSt10istrstream5rdbufEv                                                                                                                                                                                                                           
00002121  _ZNKSt10moneypunctIcLb0EE11do_groupingEv                                                                                                                                                                                                             
0001f539  _ZNKSt10moneypunctIcLb0EE13decimal_pointEv                                                                                                                                                                                                           
000020fd  _ZNKSt10moneypunctIcLb0EE13do_neg_formatEv                                                                                                                                                                                                           
00002101  _ZNKSt10moneypunctIcLb0EE13do_pos_formatEv                                                                                                                                                                                                           
00002119  _ZNKSt10moneypunctIcLb0EE14do_curr_symbolEv                                                                                                                                                                                                          
00002105  _ZNKSt10moneypunctIcLb0EE14do_frac_digitsEv                                                                                                                                                                                                          
0000212d  _ZNKSt10moneypunctIcLb0EE16do_decimal_pointEv                                                                                                                                                                                                        
00002109  _ZNKSt10moneypunctIcLb0EE16do_negative_signEv                                                                                                                                                                                                        
00002111  _ZNKSt10moneypunctIcLb0EE16do_positive_signEv                                                                                                                                                                                                        
00002129  _ZNKSt10moneypunctIcLb0EE16do_thousands_sepEv                                                                                                                                                                                                        
00002163  _ZNKSt10moneypunctIcLb1EE11do_groupingEv                                                                                                                                                                                                             
0000213b  _ZNKSt10moneypunctIcLb1EE13do_neg_formatEv                                                                                                                                                                                                           
0000213f  _ZNKSt10moneypunctIcLb1EE13do_pos_formatEv                                                                                                                                                                                                           
0000215d  _ZNKSt10moneypunctIcLb1EE14do_curr_symbolEv                                                                                                                                                                                                          
00002143  _ZNKSt10moneypunctIcLb1EE14do_frac_digitsEv                                                                                                                                                                                                          
0000216d  _ZNKSt10moneypunctIcLb1EE16do_decimal_pointEv                                                                                                                                                                                                        
0000214d  _ZNKSt10moneypunctIcLb1EE16do_negative_signEv                                                                                                                                                                                                        
00002155  _ZNKSt10moneypunctIcLb1EE16do_positive_signEv                                                                                                                                                                                                        
00002169  _ZNKSt10moneypunctIcLb1EE16do_thousands_sepEv                                                                                                                                                                                                        
000020a5  _ZNKSt10moneypunctIwLb0EE11do_groupingEv                                                                                                                                                                                                             
0001f543  _ZNKSt10moneypunctIwLb0EE13decimal_pointEv                                                                                                                                                                                                           
00002087  _ZNKSt10moneypunctIwLb0EE13do_neg_formatEv                                                                                                                                                                                                           
0000208b  _ZNKSt10moneypunctIwLb0EE13do_pos_formatEv                                                                                                                                                                                                           
0000209f  _ZNKSt10moneypunctIwLb0EE14do_curr_symbolEv                                                                                                                                                                                                          
0000208f  _ZNKSt10moneypunctIwLb0EE14do_frac_digitsEv                                                                                                                                                                                                          
000020b1  _ZNKSt10moneypunctIwLb0EE16do_decimal_pointEv                                                                                                                                                                                                        
00002093  _ZNKSt10moneypunctIwLb0EE16do_negative_signEv                                                                                                                                                                                                        
00002099  _ZNKSt10moneypunctIwLb0EE16do_positive_signEv                                                                                                                                                                                                        
000020ad  _ZNKSt10moneypunctIwLb0EE16do_thousands_sepEv                                                                                                                                                                                                        
000020e3  _ZNKSt10moneypunctIwLb1EE11do_groupingEv                                                                                                                                                                                                             
0001f54d  _ZNKSt10moneypunctIwLb1EE13decimal_pointEv                                                                                                                                                                                                           
000020bf  _ZNKSt10moneypunctIwLb1EE13do_neg_formatEv                                                                                                                                                                                                           
000020c3  _ZNKSt10moneypunctIwLb1EE13do_pos_formatEv                                                                                                                                                                                                           
000020dd  _ZNKSt10moneypunctIwLb1EE14do_curr_symbolEv                                                                                                                                                                                                          
000020cd  _ZNKSt10moneypunctIwLb1EE14do_frac_digitsEv                                                                                                                                                                                                          
000020ef  _ZNKSt10moneypunctIwLb1EE16do_decimal_pointEv                                                                                                                                                                                                        
000020d1  _ZNKSt10moneypunctIwLb1EE16do_negative_signEv                                                                                                                                                                                                        
000020d7  _ZNKSt10moneypunctIwLb1EE16do_positive_signEv                                                                                                                                                                                                        
000020eb  _ZNKSt10moneypunctIwLb1EE16do_thousands_sepEv                                                                                                                                                                                                        
00007cc3  _ZNKSt10ostrstream5rdbufEv                                                                                                                                                                                                                           
00007cbd  _ZNKSt10ostrstream6pcountEv                                                                                                                                                                                                                          
000002cb  _ZNKSt12_Locale_impl4Init8_M_countEv                                                                                                                                                                                                                 
00002bb1  _ZNKSt12ctype_bynameIcE10do_tolowerEPcPKc                                                                                                                                                                                                            
00002bfb  _ZNKSt12ctype_bynameIcE10do_tolowerEc                                                                                                                                                                                                                
00002bdd  _ZNKSt12ctype_bynameIcE10do_toupperEPcPKc                                                                                                                                                                                                            
00002c05  _ZNKSt12ctype_bynameIcE10do_toupperEc                                                                                                                                                                                                                
00002afb  _ZNKSt12ctype_bynameIwE10do_scan_isENSt10ctype_base4maskEPKwS4_                                                                                                                                                                                      
000029db  _ZNKSt12ctype_bynameIwE10do_tolowerEPwPKw                                                                                                                                                                                                            
000029fb  _ZNKSt12ctype_bynameIwE10do_tolowerEw                                                                                                                                                                                                                
00002a0b  _ZNKSt12ctype_bynameIwE10do_toupperEPwPKw                                                                                                                                                                                                            
00002a2b  _ZNKSt12ctype_bynameIwE10do_toupperEw                                                                                                                                                                                                                
00002acf  _ZNKSt12ctype_bynameIwE11do_scan_notENSt10ctype_base4maskEPKwS4_                                                                                                                                                                                     
00002b3b  _ZNKSt12ctype_bynameIwE5do_isENSt10ctype_base4maskEw                                                                                                                                                                                                 
00002b13  _ZNKSt12ctype_bynameIwE5do_isEPKwS2_PNSt10ctype_base4maskE                                                                                                                                                                                           
00007ca3  _ZNKSt12strstreambuf6pcountEv                                                                                                                                                                                                                        
000027dd  _ZNKSt14codecvt_bynameIwciE10do_unshiftERiPcS2_RS2_                                                                                                                                                                                                  
000027b5  _ZNKSt14codecvt_bynameIwciE11do_encodingEv                                                                                                                                                                                                           
00002755  _ZNKSt14codecvt_bynameIwciE13do_max_lengthEv                                                                                                                                                                                                         
0000279b  _ZNKSt14codecvt_bynameIwciE16do_always_noconvEv                                                                                                                                                                                                      
00002809  _ZNKSt14codecvt_bynameIwciE5do_inERiPKcS3_RS3_PwS5_RS5_                                                                                                                                                                                              
0000284f  _ZNKSt14codecvt_bynameIwciE6do_outERiPKwS3_RS3_PcS5_RS5_                                                                                                                                                                                             
00002765  _ZNKSt14codecvt_bynameIwciE9do_lengthERiPKcS3_j                                                                                                                                                                                                      
0000260b  _ZNKSt14collate_bynameIcE10do_compareEPKcS2_S2_S2_                                                                                                                                                                                                   
00002511  _ZNKSt14collate_bynameIcE12do_transformEPKcS2_                                                                                                                                                                                                       
0000245f  _ZNKSt14collate_bynameIwE10do_compareEPKwS2_S2_S2_                                                                                                                                                                                                   
00002355  _ZNKSt14collate_bynameIwE12do_transformEPKwS2_                                                                                                                                                                                                       
0001f175  _ZNKSt15basic_streambufIcSt11char_traitsIcEE4gptrEv                                                                                                                                                                                                  
0001f183  _ZNKSt15basic_streambufIcSt11char_traitsIcEE4pptrEv                                                                                                                                                                                                  
0001f191  _ZNKSt15basic_streambufIcSt11char_traitsIcEE5ebackEv                                                                                                                                                                                                 
0001f19f  _ZNKSt15basic_streambufIcSt11char_traitsIcEE5egptrEv                                                                                                                                                                                                 
0001f1ad  _ZNKSt15basic_streambufIcSt11char_traitsIcEE5epptrEv                                                                                                                                                                                                 
0001f1bb  _ZNKSt15basic_streambufIcSt11char_traitsIcEE5pbaseEv                                                                                                                                                                                                 
0001f3b9  _ZNKSt15basic_streambufIcSt11char_traitsIcEE7_M_gptrEv                                                                                                                                                                                               
0001f3c5  _ZNKSt15basic_streambufIcSt11char_traitsIcEE8_M_egptrEv                                                                                                                                                                                              
00001b5f  _ZNKSt15messages_bynameIcE6do_getEiiiRKSs                                                                                                                                                                                                            
00001b71  _ZNKSt15messages_bynameIcE7do_openERKSsRKSt6locale                                                                                                                                                                                                   
00001b13  _ZNKSt15messages_bynameIcE8do_closeEi                                                                                                                                                                                                                
00001a0f  _ZNKSt15messages_bynameIwE6do_getEiiiRKSbIwSt11char_traitsIwESaIwEE                                                                                                                                                                                  
00001b09  _ZNKSt15messages_bynameIwE7do_openERKSsRKSt6locale                                                                                                                                                                                                   
000018bd  _ZNKSt15messages_bynameIwE8do_closeEi                                                                                                                                                                                                                
00002257  _ZNKSt15numpunct_bynameIcE11do_groupingEv                                                                                                                                                                                                            
00002243  _ZNKSt15numpunct_bynameIcE11do_truenameEv                                                                                                                                                                                                            
0000222b  _ZNKSt15numpunct_bynameIcE12do_falsenameEv                                                                                                                                                                                                           
00002281  _ZNKSt15numpunct_bynameIcE16do_decimal_pointEv                                                                                                                                                                                                       
00002279  _ZNKSt15numpunct_bynameIcE16do_thousands_sepEv                                                                                                                                                                                                       
000021bb  _ZNKSt15numpunct_bynameIwE11do_groupingEv                                                                                                                                                                                                            
0000219d  _ZNKSt15numpunct_bynameIwE11do_truenameEv                                                                                                                                                                                                            
0000217f  _ZNKSt15numpunct_bynameIwE12do_falsenameEv                                                                                                                                                                                                           
000021e5  _ZNKSt15numpunct_bynameIwE16do_decimal_pointEv                                                                                                                                                                                                       
000021dd  _ZNKSt15numpunct_bynameIwE16do_thousands_sepEv                                                                                                                                                                                                       
0001f62f  _ZNKSt15time_get_bynameIcSt19istreambuf_iteratorIcSt11char_traitsIcEEE13do_date_orderEv                                                                                                                                                              
0001f635  _ZNKSt15time_get_bynameIwSt19istreambuf_iteratorIwSt11char_traitsIwEEE13do_date_orderEv                                                                                                                                                              
00001de1  _ZNKSt17moneypunct_bynameIcLb0EE11do_groupingEv                                                                                                                                                                                                      
00001dcd  _ZNKSt17moneypunct_bynameIcLb0EE14do_curr_symbolEv                                                                                                                                                                                                   
00001d9d  _ZNKSt17moneypunct_bynameIcLb0EE14do_frac_digitsEv                                                                                                                                                                                                   
00001df9  _ZNKSt17moneypunct_bynameIcLb0EE16do_decimal_pointEv                                                                                                                                                                                                 
00001da1  _ZNKSt17moneypunct_bynameIcLb0EE16do_negative_signEv                                                                                                                                                                                                 
00001db5  _ZNKSt17moneypunct_bynameIcLb0EE16do_positive_signEv                                                                                                                                                                                                 
00001df5  _ZNKSt17moneypunct_bynameIcLb0EE16do_thousands_sepEv                                                                                                                                                                                                 
00001d61  _ZNKSt17moneypunct_bynameIcLb1EE11do_groupingEv                                                                                                                                                                                                      
00001d49  _ZNKSt17moneypunct_bynameIcLb1EE14do_curr_symbolEv                                                                                                                                                                                                   
00001d0d  _ZNKSt17moneypunct_bynameIcLb1EE14do_frac_digitsEv                                                                                                                                                                                                   
00001d79  _ZNKSt17moneypunct_bynameIcLb1EE16do_decimal_pointEv                                                                                                                                                                                                 
00001d15  _ZNKSt17moneypunct_bynameIcLb1EE16do_negative_signEv                                                                                                                                                                                                 
00001d31  _ZNKSt17moneypunct_bynameIcLb1EE16do_positive_signEv                                                                                                                                                                                                 
00001d75  _ZNKSt17moneypunct_bynameIcLb1EE16do_thousands_sepEv                                                                                                                                                                                                 
00001cd1  _ZNKSt17moneypunct_bynameIwLb0EE11do_groupingEv                                                                                                                                                                                                      
00001cb7  _ZNKSt17moneypunct_bynameIwLb0EE14do_curr_symbolEv                                                                                                                                                                                                   
00001c73  _ZNKSt17moneypunct_bynameIwLb0EE14do_frac_digitsEv                                                                                                                                                                                                   
00001ce9  _ZNKSt17moneypunct_bynameIwLb0EE16do_decimal_pointEv                                                                                                                                                                                                 
00001c7f  _ZNKSt17moneypunct_bynameIwLb0EE16do_negative_signEv                                                                                                                                                                                                 
00001c99  _ZNKSt17moneypunct_bynameIwLb0EE16do_positive_signEv                                                                                                                                                                                                 
00001ce5  _ZNKSt17moneypunct_bynameIwLb0EE16do_thousands_sepEv                                                                                                                                                                                                 
00001c11  _ZNKSt17moneypunct_bynameIwLb1EE11do_groupingEv                                                                                                                                                                                                      
00001bf3  _ZNKSt17moneypunct_bynameIwLb1EE14do_curr_symbolEv                                                                                                                                                                                                   
00001b9d  _ZNKSt17moneypunct_bynameIwLb1EE14do_frac_digitsEv                                                                                                                                                                                                   
00001c31  _ZNKSt17moneypunct_bynameIwLb1EE16do_decimal_pointEv                                                                                                                                                                                                 
00001ba9  _ZNKSt17moneypunct_bynameIwLb1EE16do_negative_signEv                                                                                                                                                                                                 
00001bd5  _ZNKSt17moneypunct_bynameIwLb1EE16do_positive_signEv                                                                                                                                                                                                 
00001c29  _ZNKSt17moneypunct_bynameIwLb1EE16do_thousands_sepEv                                                                                                                                                                                                 
0001aa79  _ZNKSt19istreambuf_iteratorIcSt11char_traitsIcEE5equalERKS2_                                                                                                                                                                                         
0001d579  _ZNKSt19istreambuf_iteratorIcSt11char_traitsIcEE7_M_getcEv                                                                                                                                                                                           
0001aae9  _ZNKSt19istreambuf_iteratorIwSt11char_traitsIwEE5equalERKS2_                                                                                                                                                                                         
0001d5ab  _ZNKSt19istreambuf_iteratorIwSt11char_traitsIwEE7_M_getcEv                                                                                                                                                                                           
0001e8a9  _ZNKSt19ostreambuf_iteratorIcSt11char_traitsIcEE6failedEv                                                                                                                                                                                            
0001f1c9  _ZNKSt4fposIiEcvlEv                                                                                                                                                                                                                                  
0001f3d1  _ZNKSt4priv12_String_baseIcNS_20__iostring_allocatorIcEEE21_M_throw_length_errorEv                                                                                                                                                                   
0001e705  _ZNKSt4priv12_String_baseIcSaIcEE11_M_capacityEv                                                                                                                                                                                                     
0001ea7d  _ZNKSt4priv12_String_baseIcSaIcEE19_M_using_static_bufEv                                                                                                                                                                                             
0001f04d  _ZNKSt4priv12_String_baseIcSaIcEE21_M_throw_length_errorEv                                                                                                                                                                                           
0001f05d  _ZNKSt4priv12_String_baseIcSaIcEE21_M_throw_out_of_rangeEv                                                                                                                                                                                           
0001e081  _ZNKSt4priv12_String_baseIcSaIcEE7_M_restEv                                                                                                                                                                                                          
0001f1d7  _ZNKSt4priv12_String_baseIcSaIcEE8_M_StartEv                                                                                                                                                                                                         
0001e2d5  _ZNKSt4priv12_String_baseIcSaIcEE8max_sizeEv                                                                                                                                                                                                         
0001f1e5  _ZNKSt4priv12_String_baseIcSaIcEE9_M_FinishEv                                                                                                                                                                                                        
0001f3dd  _ZNKSt4priv12_String_baseIwNS_20__iostring_allocatorIwEEE21_M_throw_length_errorEv                                                                                                                                                                   
0001f3e9  _ZNKSt4priv12_String_baseIwSaIwEE21_M_throw_length_errorEv                                                                                                                                                                                           
0001f3f5  _ZNKSt4priv12_Vector_baseIPNSt6locale5facetESaIS3_EE21_M_throw_length_errorEv                                                                                                                                                                        
0001e0a7  _ZNKSt4priv14_Is_not_wspaceISt11char_traitsIcEEclEc                                                                                                                                                                                                  
000018f5  _ZNKSt4priv19_Catalog_locale_map6lookupEi                                                                                                                                                                                                            
0001ea95  _ZNKSt4priv20_Scan_for_not_wspaceISt11char_traitsIcEEclEPKcS5_                                                                                                                                                                                       
0000195d  _ZNKSt4priv9_Messages6do_getEiiiRKSbIwSt11char_traitsIwESaIwEE                                                                                                                                                                                       
00001b19  _ZNKSt4priv9_Messages6do_getEiiiRKSs                                                                                                                                                                                                                 
00001ae1  _ZNKSt4priv9_Messages7do_openERKSsRKSt6locale                                                                                                                                                                                                        
000018b3  _ZNKSt4priv9_Messages8do_closeEi                                                                                                                                                                                                                     
0000d093  _ZNKSt5ctypeIcE10do_tolowerEPcPKc                                                                                                                                                                                                                    
0000d08d  _ZNKSt5ctypeIcE10do_tolowerEc                                                                                                                                                                                                                        
0000d073  _ZNKSt5ctypeIcE10do_toupperEPcPKc                                                                                                                                                                                                                    
0000d06d  _ZNKSt5ctypeIcE10do_toupperEc                                                                                                                                                                                                                        
0001ddf5  _ZNKSt5ctypeIcE2isENSt10ctype_base4maskEc                                                                                                                                                                                                            
0001f557  _ZNKSt5ctypeIcE5widenEc                                                                                                                                                                                                                              
0000cff1  _ZNKSt5ctypeIcE7scan_isENSt10ctype_base4maskEPKcS4_                                                                                                                                                                                                  
0000cfd5  _ZNKSt5ctypeIcE8do_widenEPKcS2_Pc                                                                                                                                                                                                                    
0000cfd1  _ZNKSt5ctypeIcE8do_widenEc                                                                                                                                                                                                                           
0000cf55  _ZNKSt5ctypeIcE8scan_notENSt10ctype_base4maskEPKcS4_                                                                                                                                                                                                 
0000cf41  _ZNKSt5ctypeIcE9do_narrowEPKcS2_cPc                                                                                                                                                                                                                  
0000cf3d  _ZNKSt5ctypeIcE9do_narrowEcc                                                                                                                                                                                                                         
0000ce87  _ZNKSt5ctypeIwE10do_scan_isENSt10ctype_base4maskEPKwS4_                                                                                                                                                                                              
0000ce65  _ZNKSt5ctypeIwE10do_tolowerEPwPKw                                                                                                                                                                                                                    
0000ce59  _ZNKSt5ctypeIwE10do_tolowerEw                                                                                                                                                                                                                        
0000ce37  _ZNKSt5ctypeIwE10do_toupperEPwPKw                                                                                                                                                                                                                    
0000ce2b  _ZNKSt5ctypeIwE10do_toupperEw                                                                                                                                                                                                                        
0000cdfd  _ZNKSt5ctypeIwE11do_scan_notENSt10ctype_base4maskEPKwS4_                                                                                                                                                                                             
0000cde7  _ZNKSt5ctypeIwE5do_isENSt10ctype_base4maskEw                                                                                                                                                                                                         
0000cdbd  _ZNKSt5ctypeIwE5do_isEPKwS2_PNSt10ctype_base4maskE                                                                                                                                                                                                   
0001f561  _ZNKSt5ctypeIwE5widenEPKcS2_Pw                                                                                                                                                                                                                       
0001f56b  _ZNKSt5ctypeIwE5widenEc                                                                                                                                                                                                                              
0000cda5  _ZNKSt5ctypeIwE8do_widenEPKcS2_Pw                                                                                                                                                                                                                    
0000cda1  _ZNKSt5ctypeIwE8do_widenEc                                                                                                                                                                                                                           
0000cd7d  _ZNKSt5ctypeIwE9do_narrowEPKwS2_cPc                                                                                                                                                                                                                  
0000cd71  _ZNKSt5ctypeIwE9do_narrowEwc                                                                                                                                                                                                                         
00001019  _ZNKSt6locale12_M_get_facetERKNS_2idE                                                                                                                                                                                                                
00001033  _ZNKSt6locale12_M_use_facetERKNS_2idE                                                                                                                                                                                                                
0000368b  _ZNKSt6locale4nameEv                                                                                                                                                                                                                                 
00003693  _ZNKSt6localeeqERKS_                                                                                                                                                                                                                                 
0000373f  _ZNKSt6localeneERKS_                                                                                                                                                                                                                                 
000029a7  _ZNKSt7codecvtIcciE10do_unshiftERiPcS2_RS2_                                                                                                                                                                                                          
000029a3  _ZNKSt7codecvtIcciE11do_encodingEv                                                                                                                                                                                                                   
00002987  _ZNKSt7codecvtIcciE13do_max_lengthEv                                                                                                                                                                                                                 
0000299f  _ZNKSt7codecvtIcciE16do_always_noconvEv                                                                                                                                                                                                              
000029af  _ZNKSt7codecvtIcciE5do_inERiPKcS3_RS3_PcS5_RS5_                                                                                                                                                                                                      
000029bd  _ZNKSt7codecvtIcciE6do_outERiPKcS3_RS3_PcS5_RS5_                                                                                                                                                                                                     
0000298b  _ZNKSt7codecvtIcciE9do_lengthERiPKcS3_j                                                                                                                                                                                                              
000028e9  _ZNKSt7codecvtIwciE10do_unshiftERiPcS2_RS2_                                                                                                                                                                                                          
000028e5  _ZNKSt7codecvtIwciE11do_encodingEv                                                                                                                                                                                                                   
000028c9  _ZNKSt7codecvtIwciE13do_max_lengthEv                                                                                                                                                                                                                 
000028e1  _ZNKSt7codecvtIwciE16do_always_noconvEv                                                                                                                                                                                                              
000028f5  _ZNKSt7codecvtIwciE5do_inERiPKcS3_RS3_PwS5_RS5_                                                                                                                                                                                                      
00002937  _ZNKSt7codecvtIwciE6do_outERiPKwS3_RS3_PcS5_RS5_                                                                                                                                                                                                     
000028cd  _ZNKSt7codecvtIwciE9do_lengthERiPKcS3_j                                                                                                                                                                                                              
0000270f  _ZNKSt7collateIcE10do_compareEPKcS2_S2_S2_                                                                                                                                                                                                           
000026e3  _ZNKSt7collateIcE12do_transformEPKcS2_                                                                                                                                                                                                               
000026c7  _ZNKSt7collateIcE7do_hashEPKcS2_                                                                                                                                                                                                                     
00002687  _ZNKSt7collateIwE10do_compareEPKwS2_S2_S2_                                                                                                                                                                                                           
00002659  _ZNKSt7collateIwE12do_transformEPKwS2_                                                                                                                                                                                                               
0000263b  _ZNKSt7collateIwE7do_hashEPKwS2_                                                                                                                                                                                                                     
0001cb37  _ZNKSt7num_getIcSt19istreambuf_iteratorIcSt11char_traitsIcEEE6do_getES3_S3_RSt8ios_baseRiRPv                                                                                                                                                         
0001a995  _ZNKSt7num_getIcSt19istreambuf_iteratorIcSt11char_traitsIcEEE6do_getES3_S3_RSt8ios_baseRiRb                                                                                                                                                          
0001da01  _ZNKSt7num_getIcSt19istreambuf_iteratorIcSt11char_traitsIcEEE6do_getES3_S3_RSt8ios_baseRiRd                                                                                                                                                          
0001da2d  _ZNKSt7num_getIcSt19istreambuf_iteratorIcSt11char_traitsIcEEE6do_getES3_S3_RSt8ios_baseRiRe                                                                                                                                                          
0001da59  _ZNKSt7num_getIcSt19istreambuf_iteratorIcSt11char_traitsIcEEE6do_getES3_S3_RSt8ios_baseRiRf                                                                                                                                                          
0001da85  _ZNKSt7num_getIcSt19istreambuf_iteratorIcSt11char_traitsIcEEE6do_getES3_S3_RSt8ios_baseRiRj                                                                                                                                                          
0001dab1  _ZNKSt7num_getIcSt19istreambuf_iteratorIcSt11char_traitsIcEEE6do_getES3_S3_RSt8ios_baseRiRl                                                                                                                                                          
0001dadd  _ZNKSt7num_getIcSt19istreambuf_iteratorIcSt11char_traitsIcEEE6do_getES3_S3_RSt8ios_baseRiRm                                                                                                                                                          
0001db09  _ZNKSt7num_getIcSt19istreambuf_iteratorIcSt11char_traitsIcEEE6do_getES3_S3_RSt8ios_baseRiRt                                                                                                                                                          
0001db35  _ZNKSt7num_getIcSt19istreambuf_iteratorIcSt11char_traitsIcEEE6do_getES3_S3_RSt8ios_baseRiRx                                                                                                                                                          
0001db61  _ZNKSt7num_getIcSt19istreambuf_iteratorIcSt11char_traitsIcEEE6do_getES3_S3_RSt8ios_baseRiRy                                                                                                                                                          
0001cb7b  _ZNKSt7num_getIwSt19istreambuf_iteratorIwSt11char_traitsIwEEE6do_getES3_S3_RSt8ios_baseRiRPv                                                                                                                                                         
0001aa07  _ZNKSt7num_getIwSt19istreambuf_iteratorIwSt11char_traitsIwEEE6do_getES3_S3_RSt8ios_baseRiRb                                                                                                                                                          
0001db8d  _ZNKSt7num_getIwSt19istreambuf_iteratorIwSt11char_traitsIwEEE6do_getES3_S3_RSt8ios_baseRiRd                                                                                                                                                          
0001dbb9  _ZNKSt7num_getIwSt19istreambuf_iteratorIwSt11char_traitsIwEEE6do_getES3_S3_RSt8ios_baseRiRe                                                                                                                                                          
0001dbe5  _ZNKSt7num_getIwSt19istreambuf_iteratorIwSt11char_traitsIwEEE6do_getES3_S3_RSt8ios_baseRiRf                                                                                                                                                          
0001dc11  _ZNKSt7num_getIwSt19istreambuf_iteratorIwSt11char_traitsIwEEE6do_getES3_S3_RSt8ios_baseRiRj                                                                                                                                                          
0001dc3d  _ZNKSt7num_getIwSt19istreambuf_iteratorIwSt11char_traitsIwEEE6do_getES3_S3_RSt8ios_baseRiRl                                                                                                                                                          
0001dc69  _ZNKSt7num_getIwSt19istreambuf_iteratorIwSt11char_traitsIwEEE6do_getES3_S3_RSt8ios_baseRiRm                                                                                                                                                          
0001dc95  _ZNKSt7num_getIwSt19istreambuf_iteratorIwSt11char_traitsIwEEE6do_getES3_S3_RSt8ios_baseRiRt                                                                                                                                                          
0001dcc1  _ZNKSt7num_getIwSt19istreambuf_iteratorIwSt11char_traitsIwEEE6do_getES3_S3_RSt8ios_baseRiRx                                                                                                                                                          
0001dced  _ZNKSt7num_getIwSt19istreambuf_iteratorIwSt11char_traitsIwEEE6do_getES3_S3_RSt8ios_baseRiRy                                                                                                                                                          
0001cfcd  _ZNKSt7num_putIcSt19ostreambuf_iteratorIcSt11char_traitsIcEEE3putES3_RSt8ios_basecl                                                                                                                                                                  
00012c91  _ZNKSt7num_putIcSt19ostreambuf_iteratorIcSt11char_traitsIcEEE6do_putES3_RSt8ios_basecPKv                                                                                                                                                             
0001b43d  _ZNKSt7num_putIcSt19ostreambuf_iteratorIcSt11char_traitsIcEEE6do_putES3_RSt8ios_basecb                                                                                                                                                               
0001d3d9  _ZNKSt7num_putIcSt19ostreambuf_iteratorIcSt11char_traitsIcEEE6do_putES3_RSt8ios_basecd                                                                                                                                                               
0001d40d  _ZNKSt7num_putIcSt19ostreambuf_iteratorIcSt11char_traitsIcEEE6do_putES3_RSt8ios_basece                                                                                                                                                               
0001d739  _ZNKSt7num_putIcSt19ostreambuf_iteratorIcSt11char_traitsIcEEE6do_putES3_RSt8ios_basecl                                                                                                                                                               
0001d769  _ZNKSt7num_putIcSt19ostreambuf_iteratorIcSt11char_traitsIcEEE6do_putES3_RSt8ios_basecm                                                                                                                                                               
0001d1e3  _ZNKSt7num_putIcSt19ostreambuf_iteratorIcSt11char_traitsIcEEE6do_putES3_RSt8ios_basecx                                                                                                                                                               
0001d21b  _ZNKSt7num_putIcSt19ostreambuf_iteratorIcSt11char_traitsIcEEE6do_putES3_RSt8ios_basecy                                                                                                                                                               
00012dbd  _ZNKSt7num_putIwSt19ostreambuf_iteratorIwSt11char_traitsIwEEE6do_putES3_RSt8ios_basewPKv                                                                                                                                                             
0001b4a3  _ZNKSt7num_putIwSt19ostreambuf_iteratorIwSt11char_traitsIwEEE6do_putES3_RSt8ios_basewb                                                                                                                                                               
0001d441  _ZNKSt7num_putIwSt19ostreambuf_iteratorIwSt11char_traitsIwEEE6do_putES3_RSt8ios_basewd                                                                                                                                                               
0001d475  _ZNKSt7num_putIwSt19ostreambuf_iteratorIwSt11char_traitsIwEEE6do_putES3_RSt8ios_basewe                                                                                                                                                               
0001d799  _ZNKSt7num_putIwSt19ostreambuf_iteratorIwSt11char_traitsIwEEE6do_putES3_RSt8ios_basewl                                                                                                                                                               
0001d7c9  _ZNKSt7num_putIwSt19ostreambuf_iteratorIwSt11char_traitsIwEEE6do_putES3_RSt8ios_basewm                                                                                                                                                               
0001d253  _ZNKSt7num_putIwSt19ostreambuf_iteratorIwSt11char_traitsIwEEE6do_putES3_RSt8ios_basewx                                                                                                                                                               
0001d28b  _ZNKSt7num_putIwSt19ostreambuf_iteratorIwSt11char_traitsIwEEE6do_putES3_RSt8ios_basewy                                                                                                                                                               
0001edaf  _ZNKSt8ios_base4goodEv                                                                                                                                                                                                                               
0001f1f3  _ZNKSt8ios_base5flagsEv                                                                                                                                                                                                                              
0001f201  _ZNKSt8ios_base5widthEv                                                                                                                                                                                                                              
0001ef3f  _ZNKSt8ios_base6getlocEv                                                                                                                                                                                                                             
0001f20f  _ZNKSt8ios_base7rdstateEv                                                                                                                                                                                                                            
0001f63b  _ZNKSt8messagesIcE6do_getEiiiRKSs                                                                                                                                                                                                                    
0001f641  _ZNKSt8messagesIcE7do_openERKSsRKSt6locale                                                                                                                                                                                                           
00008e37  _ZNKSt8messagesIcE8do_closeEi                                                                                                                                                                                                                        
0001f647  _ZNKSt8messagesIwE6do_getEiiiRKSbIwSt11char_traitsIwESaIwEE                                                                                                                                                                                          
0001f64d  _ZNKSt8messagesIwE7do_openERKSsRKSt6locale                                                                                                                                                                                                           
0000b217  _ZNKSt8messagesIwE8do_closeEi                                                                                                                                                                                                                        
000022fd  _ZNKSt8numpunctIcE11do_groupingEv                                                                                                                                                                                                                    
000022f1  _ZNKSt8numpunctIcE11do_truenameEv                                                                                                                                                                                                                    
000022e5  _ZNKSt8numpunctIcE12do_falsenameEv                                                                                                                                                                                                                   
0001f575  _ZNKSt8numpunctIcE13decimal_pointEv                                                                                                                                                                                                                  
0001f57f  _ZNKSt8numpunctIcE13thousands_sepEv                                                                                                                                                                                                                  
00002317  _ZNKSt8numpunctIcE16do_decimal_pointEv                                                                                                                                                                                                               
00002313  _ZNKSt8numpunctIcE16do_thousands_sepEv                                                                                                                                                                                                               
0001f589  _ZNKSt8numpunctIcE8groupingEv                                                                                                                                                                                                                        
0001f593  _ZNKSt8numpunctIcE9falsenameEv                                                                                                                                                                                                                       
000022bd  _ZNKSt8numpunctIwE11do_groupingEv                                                                                                                                                                                                                    
000022b1  _ZNKSt8numpunctIwE11do_truenameEv                                                                                                                                                                                                                    
000022a5  _ZNKSt8numpunctIwE12do_falsenameEv                                                                                                                                                                                                                   
0001f59d  _ZNKSt8numpunctIwE13thousands_sepEv                                                                                                                                                                                                                  
000022d7  _ZNKSt8numpunctIwE16do_decimal_pointEv                                                                                                                                                                                                               
000022d3  _ZNKSt8numpunctIwE16do_thousands_sepEv                                                                                                                                                                                                               
0001f5a7  _ZNKSt8numpunctIwE8groupingEv                                                                                                                                                                                                                        
0001f5b1  _ZNKSt8numpunctIwE9falsenameEv                                                                                                                                                                                                                       
0001a2f5  _ZNKSt8time_getIcSt19istreambuf_iteratorIcSt11char_traitsIcEEE11do_get_dateES3_S3_RSt8ios_baseRiPSt2tm                                                                                                                                               
0001a371  _ZNKSt8time_getIcSt19istreambuf_iteratorIcSt11char_traitsIcEEE11do_get_timeES3_S3_RSt8ios_baseRiPSt2tm                                                                                                                                               
0001b0f5  _ZNKSt8time_getIcSt19istreambuf_iteratorIcSt11char_traitsIcEEE11do_get_yearES3_S3_RSt8ios_baseRiPSt2tm                                                                                                                                               
0001f653  _ZNKSt8time_getIcSt19istreambuf_iteratorIcSt11char_traitsIcEEE13do_date_orderEv                                                                                                                                                                      
0001be65  _ZNKSt8time_getIcSt19istreambuf_iteratorIcSt11char_traitsIcEEE14do_get_weekdayES3_S3_RSt8ios_baseRiPSt2tm                                                                                                                                            
0001bebb  _ZNKSt8time_getIcSt19istreambuf_iteratorIcSt11char_traitsIcEEE16do_get_monthnameES3_S3_RSt8ios_baseRiPSt2tm                                                                                                                                          
0001a3ed  _ZNKSt8time_getIwSt19istreambuf_iteratorIwSt11char_traitsIwEEE11do_get_dateES3_S3_RSt8ios_baseRiPSt2tm                                                                                                                                               
0001a469  _ZNKSt8time_getIwSt19istreambuf_iteratorIwSt11char_traitsIwEEE11do_get_timeES3_S3_RSt8ios_baseRiPSt2tm                                                                                                                                               
0001b15f  _ZNKSt8time_getIwSt19istreambuf_iteratorIwSt11char_traitsIwEEE11do_get_yearES3_S3_RSt8ios_baseRiPSt2tm                                                                                                                                               
0001f659  _ZNKSt8time_getIwSt19istreambuf_iteratorIwSt11char_traitsIwEEE13do_date_orderEv                                                                                                                                                                      
0001c7df  _ZNKSt8time_getIwSt19istreambuf_iteratorIwSt11char_traitsIwEEE14do_get_weekdayES3_S3_RSt8ios_baseRiPSt2tm                                                                                                                                            
0001c827  _ZNKSt8time_getIwSt19istreambuf_iteratorIwSt11char_traitsIwEEE16do_get_monthnameES3_S3_RSt8ios_baseRiPSt2tm                                                                                                                                          
00016079  _ZNKSt8time_putIcSt19ostreambuf_iteratorIcSt11char_traitsIcEEE6do_putES3_RSt8ios_basecPKSt2tmcc                                                                                                                                                      
00015c05  _ZNKSt8time_putIwSt19ostreambuf_iteratorIwSt11char_traitsIwEEE6do_putES3_RSt8ios_basewPKSt2tmcc                                                                                                                                                      
0001f21d  _ZNKSt9basic_iosIcSt11char_traitsIcEE14_M_ctype_facetEv                                                                                                                                                                                              
0001f22b  _ZNKSt9basic_iosIcSt11char_traitsIcEE3tieEv                                                                                                                                                                                                          
0001f06d  _ZNKSt9basic_iosIcSt11char_traitsIcEE4fillEv                                                                                                                                                                                                         
0001f239  _ZNKSt9basic_iosIcSt11char_traitsIcEE5rdbufEv                                                                                                                                                                                                        
0001ef51  _ZNKSt9basic_iosIcSt11char_traitsIcEE5widenEc                                                                                                                                                                                                        
0001edc3  _ZNKSt9hashtableISt4pairIKSsS0_IPvjEESsSt4hashISsENSt4priv15_HashMapTraitsTIS4_EENS7_10_Select1stIS4_EESt8equal_toISsESaIS4_EE15_M_before_beginERj                                                                                                   
0001edd7  _ZNKSt9hashtableISt4pairIKiSt6localeEiSt4hashIiENSt4priv15_HashMapTraitsTIS3_EENS6_10_Select1stIS3_EESt8equal_toIiESaIS3_EE15_M_before_beginERj                                                                                                      
0001bc55  _ZNKSt9money_getIcSt19istreambuf_iteratorIcSt11char_traitsIcEEE6do_getES3_S3_bRSt8ios_baseRiRSs                                                                                                                                                      
00015f95  _ZNKSt9money_getIcSt19istreambuf_iteratorIcSt11char_traitsIcEEE6do_getES3_S3_bRSt8ios_baseRiRe                                                                                                                                                       
0001bcad  _ZNKSt9money_getIwSt19istreambuf_iteratorIwSt11char_traitsIwEEE6do_getES3_S3_bRSt8ios_baseRiRSbIwS2_SaIwEE                                                                                                                                           
00016755  _ZNKSt9money_getIwSt19istreambuf_iteratorIwSt11char_traitsIwEEE6do_getES3_S3_bRSt8ios_baseRiRe                                                                                                                                                       
0001d009  _ZNKSt9money_putIcSt19ostreambuf_iteratorIcSt11char_traitsIcEEE6do_putES3_bRSt8ios_basecRKSs                                                                                                                                                         
00018523  _ZNKSt9money_putIcSt19ostreambuf_iteratorIcSt11char_traitsIcEEE6do_putES3_bRSt8ios_basece                                                                                                                                                            
0001d045  _ZNKSt9money_putIwSt19ostreambuf_iteratorIwSt11char_traitsIwEEE6do_putES3_bRSt8ios_basewRKSbIwS2_SaIwEE                                                                                                                                              
00017fc5  _ZNKSt9money_putIwSt19ostreambuf_iteratorIwSt11char_traitsIwEEE6do_putES3_bRSt8ios_basewe                                                                                                                                                            
00007cb9  _ZNKSt9strstream5rdbufEv                                                                                                                                                                                                                             
00007cb3  _ZNKSt9strstream6pcountEv                                                                                                                                                                                                                            
00017daf  _ZNKSt9type_info4nameEv                                                                                                                                                                                                                              
00017ddf  _ZNKSt9type_info6beforeERKS_                                                                                                                                                                                                                         
00017dc9  _ZNKSt9type_infoeqERKS_                                                                                                                                                                                                                              
00017db3  _ZNKSt9type_infoneERKS_                                                                                                                                                                                                                              
0001ebcb  _ZNSaIcE10deallocateEPcj                                                                                                                                                                                                                             
0001c871  _ZNSaIcE11_M_allocateEjRj                                                                                                                                                                                                                            
0001f247  _ZNSaIcEC1ERKS_                                                                                                                                                                                                                                      
0001f401  _ZNSaIcEC1Ev                                                                                                                                                                                                                                         
0001f07d  _ZNSaIcEC2ERKS_                                                                                                                                                                                                                                      
0001f40d  _ZNSaIcED1Ev                                                                                                                                                                                                                                         
0001f419  _ZNSaIcED2Ev                                                                                                                                                                                                                                         
0001739f  _ZNSbIcSt11char_traitsIcENSt4priv20__iostring_allocatorIcEEE10_M_appendTIPKcEERS4_T_S9_RKSt20forward_iterator_tag                                                                                                                                    
0001bae1  _ZNSbIcSt11char_traitsIcENSt4priv20__iostring_allocatorIcEEE10_M_reserveEj                                                                                                                                                                           
000172d5  _ZNSbIcSt11char_traitsIcENSt4priv20__iostring_allocatorIcEEE13_M_insert_auxEPcc                                                                                                                                                                      
0001d135  _ZNSbIcSt11char_traitsIcENSt4priv20__iostring_allocatorIcEEE20_M_compute_next_sizeEj                                                                                                                                                                 
0001a749  _ZNSbIcSt11char_traitsIcENSt4priv20__iostring_allocatorIcEEE6appendEjc                                                                                                                                                                               
0001706f  _ZNSbIcSt11char_traitsIcENSt4priv20__iostring_allocatorIcEEE9_M_appendEPKcS6_                                                                                                                                                                        
0001adf9  _ZNSbIcSt11char_traitsIcENSt4priv20__iostring_allocatorIcEEE9_M_assignEPKcS6_                                                                                                                                                                        
0001559d  _ZNSbIwSt11char_traitsIwENSt4priv20__iostring_allocatorIwEEE10_M_appendTIPKwEERS4_T_S9_RKSt20forward_iterator_tag                                                                                                                                    
0001a6d1  _ZNSbIwSt11char_traitsIwENSt4priv20__iostring_allocatorIwEEE10_M_reserveEj                                                                                                                                                                           
00015689  _ZNSbIwSt11char_traitsIwENSt4priv20__iostring_allocatorIwEEE13_M_insert_auxEPww                                                                                                                                                                      
0001cd55  _ZNSbIwSt11char_traitsIwENSt4priv20__iostring_allocatorIwEEE20_M_compute_next_sizeEj                                                                                                                                                                 
00019ee9  _ZNSbIwSt11char_traitsIwENSt4priv20__iostring_allocatorIwEEE6appendEjw                                                                                                                                                                               
0001af45  _ZNSbIwSt11char_traitsIwESaIwEE10_M_reserveEj                                                                                                                                                                                                        
0001d081  _ZNSbIwSt11char_traitsIwESaIwEE20_M_compute_next_sizeEj                                                                                                                                                                                              
0001a075  _ZNSbIwSt11char_traitsIwESaIwEE6appendEjw                                                                                                                                                                                                            
00017e59  _ZNSbIwSt11char_traitsIwESaIwEE6assignEjw                                                                                                                                                                                                            
00015ce9  _ZNSbIwSt11char_traitsIwESaIwEE9_M_appendEPKwS4_                                                                                                                                                                                                     
0001b95d  _ZNSbIwSt11char_traitsIwESaIwEE9_M_assignEPKwS4_                                                                                                                                                                                                     
0001cc8d  _ZNSbIwSt11char_traitsIwESaIwEEC1EPKwRKS1_                                                                                                                                                                                                           
0001d4a9  _ZNSbIwSt11char_traitsIwESaIwEEC1ERKS2_                                                                                                                                                                                                              
0001edeb  _ZNSbIwSt11char_traitsIwESaIwEED1Ev                                                                                                                                                                                                                  
00019bbd  _ZNSdC2EPSt15basic_streambufIcSt11char_traitsIcEE                                                                                                                                                                                                    
0001ebe1  _ZNSdD0Ev                                                                                                                                                                                                                                            
0001f255  _ZNSdD1Ev                                                                                                                                                                                                                                            
0001cbc1  _ZNSdD2Ev                                                                                                                                                                                                                                            
00017a9d  _ZNSi18_M_skip_whitespaceEb                                                                                                                                                                                                                          
0001cccf  _ZNSi6sentryC1ERSib                                                                                                                                                                                                                                  
0001f425  _ZNSi6sentryD1Ev                                                                                                                                                                                                                                     
0001afb1  _ZNSiC2EPSt15basic_streambufIcSt11char_traitsIcEE                                                                                                                                                                                                    
0001ebf7  _ZNSiD0Ev                                                                                                                                                                                                                                            
0001f263  _ZNSiD1Ev                                                                                                                                                                                                                                            
0001d7f9  _ZNSiD2Ev                                                                                                                                                                                                                                            
00010b9f  _ZNSo14_M_put_nowidenEPKc                                                                                                                                                                                                                            
0001c9d9  _ZNSo5flushEv                                                                                                                                                                                                                                        
0001e8c3  _ZNSo6sentryC1ERSo                                                                                                                                                                                                                                   
0001d5dd  _ZNSo6sentryD1Ev                                                                                                                                                                                                                                     
0001ef63  _ZNSoC1EPSt15basic_streambufIcSt11char_traitsIcEE                                                                                                                                                                                                    
0001b6a1  _ZNSoC2EPSt15basic_streambufIcSt11char_traitsIcEE                                                                                                                                                                                                    
0001ec0d  _ZNSoD0Ev                                                                                                                                                                                                                                            
0001f271  _ZNSoD1Ev                                                                                                                                                                                                                                            
0001d829  _ZNSoD2Ev                                                                                                                                                                                                                                            
0001d859  _ZNSolsEi                                                                                                                                                                                                                                            
00017467  _ZNSs10_M_appendTIPKcEERSsT_S3_RKSt20forward_iterator_tag                                                                                                                                                                                            
0001c441  _ZNSs10_M_reserveEj                                                                                                                                                                                                                                  
0001e57f  _ZNSs18_M_append_dispatchIPKcEERSsT_S3_RKSt12__false_type                                                                                                                                                                                            
00015775  _ZNSs18_M_append_fast_posINSt4priv14__bstr_wrapperIcSt11char_traitsIcESaIcEEENS0_10__bstr_sumIcS3_S4_NS0_14__cstr_wrapperIcEENS0_18__sum_storage_elemIcS3_S4_EENS0_10__on_rightEEESB_EEPcRKNS6_IcS3_S4_T_T0_T1_EESD_jj                               
0001b509  _ZNSs18_M_append_fast_posINSt4priv14__cstr_wrapperIcEENS0_18__sum_storage_elemIcSt11char_traitsIcESaIcEEENS0_10__on_rightEEEPcRKNS0_10__bstr_sumIcS5_S6_T_T0_T1_EES9_jj                                                                              
0001d0bd  _ZNSs19_M_range_initializeEPKcS0_                                                                                                                                                                                                                    
0001edff  _ZNSs19_M_terminate_stringEv                                                                                                                                                                                                                         
0001bb9d  _ZNSs20_M_compute_next_sizeEj                                                                                                                                                                                                                        
0001e0cd  _ZNSs2atEj                                                                                                                                                                                                                                           
0001f431  _ZNSs3endEv                                                                                                                                                                                                                                          
0001f43d  _ZNSs5beginEv                                                                                                                                                                                                                                        
0001d889  _ZNSs5clearEv                                                                                                                                                                                                                                        
0001d16f  _ZNSs5eraseEPcS_                                                                                                                                                                                                                                     
00019ff1  _ZNSs6appendEjc                                                                                                                                                                                                                                      
0001e721  _ZNSs6appendIPKcEERSsT_S3_                                                                                                                                                                                                                           
00018075  _ZNSs6assignEjc                                                                                                                                                                                                                                      
0001f683  _ZNSs7_M_nullEv                                                                                                                                                                                                                                      
0001c701  _ZNSs7reserveEj                                                                                                                                                                                                                                      
0001752f  _ZNSs9_M_appendEPKcS0_                                                                                                                                                                                                                               
0001a5dd  _ZNSs9_M_assignEPKcS0_                                                                                                                                                                                                                               
0001ca1f  _ZNSs9push_backEc                                                                                                                                                                                                                                    
0001e0f3  _ZNSsC1EPKcRKSaIcE                                                                                                                                                                                                                                   
0001e8dd  _ZNSsC1ERKSaIcE                                                                                                                                                                                                                                      
0001d1a9  _ZNSsC1ERKSs                                                                                                                                                                                                                                         
0001b56f  _ZNSsC1ERKSsjjRKSaIcE                                                                                                                                                                                                                                
0001f27f  _ZNSsD1Ev                                                                                                                                                                                                                                            
0001e8f7  _ZNSsaSEPKc                                                                                                                                                                                                                                          
0001de1f  _ZNSsaSERKSs                                                                                                                                                                                                                                         
0001ec23  _ZNSspLEc                                                                                                                                                                                                                                            
00002faf  _ZNSt10_UnderflowIcSt11char_traitsIcEE7_M_doitEPSt13basic_filebufIcS1_E                                                                                                                                                                              
00007c9d  _ZNSt10istrstream3strEv                                                                                                                                                                                                                              
00007c8f  _ZNSt10istrstreamC1EPKc                                                                                                                                                                                                                              
00007c7f  _ZNSt10istrstreamC1EPKci                                                                                                                                                                                                                             
00007c77  _ZNSt10istrstreamC1EPc                                                                                                                                                                                                                               
00007c67  _ZNSt10istrstreamC1EPci                                                                                                                                                                                                                              
00007bed  _ZNSt10istrstreamC2EPKc                                                                                                                                                                                                                              
00007b75  _ZNSt10istrstreamC2EPKci                                                                                                                                                                                                                             
00007af9  _ZNSt10istrstreamC2EPc                                                                                                                                                                                                                               
00007a77  _ZNSt10istrstreamC2EPci                                                                                                                                                                                                                              
00000e6f  _ZNSt10istrstreamD0Ev                                                                                                                                                                                                                                
00000e69  _ZNSt10istrstreamD1Ev                                                                                                                                                                                                                                
00000e37  _ZNSt10istrstreamD2Ev                                                                                                                                                                                                                                
20010a34  _ZNSt10moneypunctIcLb0EE2idE                                                                                                                                                                                                                         
00000367  _ZNSt10moneypunctIcLb0EEC1Ej                                                                                                                                                                                                                         
00000367  _ZNSt10moneypunctIcLb0EEC2Ej                                                                                                                                                                                                                         
00002131  _ZNSt10moneypunctIcLb0EED0Ev                                                                                                                                                                                                                         
00002139  _ZNSt10moneypunctIcLb0EED1Ev                                                                                                                                                                                                                         
00002139  _ZNSt10moneypunctIcLb0EED2Ev                                                                                                                                                                                                                         
20010a30  _ZNSt10moneypunctIcLb1EE2idE                                                                                                                                                                                                                         
00000345  _ZNSt10moneypunctIcLb1EEC1Ej                                                                                                                                                                                                                         
00000345  _ZNSt10moneypunctIcLb1EEC2Ej                                                                                                                                                                                                                         
00002171  _ZNSt10moneypunctIcLb1EED0Ev                                                                                                                                                                                                                         
00002179  _ZNSt10moneypunctIcLb1EED1Ev                                                                                                                                                                                                                         
00002179  _ZNSt10moneypunctIcLb1EED2Ev                                                                                                                                                                                                                         
20010a3c  _ZNSt10moneypunctIwLb0EE2idE                                                                                                                                                                                                                         
000004e7  _ZNSt10moneypunctIwLb0EEC1Ej                                                                                                                                                                                                                         
000004e7  _ZNSt10moneypunctIwLb0EEC2Ej                                                                                                                                                                                                                         
000020b5  _ZNSt10moneypunctIwLb0EED0Ev                                                                                                                                                                                                                         
000020bd  _ZNSt10moneypunctIwLb0EED1Ev                                                                                                                                                                                                                         
000020bd  _ZNSt10moneypunctIwLb0EED2Ev                                                                                                                                                                                                                         
20010a38  _ZNSt10moneypunctIwLb1EE2idE                                                                                                                                                                                                                         
000004c5  _ZNSt10moneypunctIwLb1EEC1Ej                                                                                                                                                                                                                         
000004c5  _ZNSt10moneypunctIwLb1EEC2Ej                                                                                                                                                                                                                         
000020f3  _ZNSt10moneypunctIwLb1EED0Ev                                                                                                                                                                                                                         
000020fb  _ZNSt10moneypunctIwLb1EED1Ev                                                                                                                                                                                                                         
000020fb  _ZNSt10moneypunctIwLb1EED2Ev                                                                                                                                                                                                                         
00007a5b  _ZNSt10ostrstream3strEv                                                                                                                                                                                                                              
00007a4d  _ZNSt10ostrstream6freezeEb                                                                                                                                                                                                                           
00007a33  _ZNSt10ostrstreamC1EPcii                                                                                                                                                                                                                             
00007a2d  _ZNSt10ostrstreamC1Ev                                                                                                                                                                                                                                
000079cd  _ZNSt10ostrstreamC2EPcii                                                                                                                                                                                                                             
00007985  _ZNSt10ostrstreamC2Ev                                                                                                                                                                                                                                
00000df1  _ZNSt10ostrstreamD0Ev                                                                                                                                                                                                                                
00000de1  _ZNSt10ostrstreamD1Ev                                                                                                                                                                                                                                
00000da3  _ZNSt10ostrstreamD2Ev                                                                                                                                                                                                                                
0001f28d  _ZNSt11__new_alloc10deallocateEPvj                                                                                                                                                                                                                   
0001f449  _ZNSt11__new_alloc8allocateEj                                                                                                                                                                                                                        
0001f29b  _ZNSt11char_traitsIcE11to_int_typeERKc                                                                                                                                                                                                               
0001f2a9  _ZNSt11char_traitsIcE12to_char_typeERKi                                                                                                                                                                                                              
0001e911  _ZNSt11char_traitsIcE6assignEPcjc                                                                                                                                                                                                                    
0001ee13  _ZNSt11char_traitsIcE6assignERcRKc                                                                                                                                                                                                                   
0001f455  _ZNSt11char_traitsIcE6lengthEPKc                                                                                                                                                                                                                     
0001ee27  _ZNSt11char_traitsIcE7compareEPKcS2_j                                                                                                                                                                                                                
0001f461  _ZNSt12_BothPtrTypeIPcS0_E7_AnswerEv                                                                                                                                                                                                                 
00000a91  _ZNSt12_Locale_impl13_S_initializeEv                                                                                                                                                                                                                 
0000797d  _ZNSt12_Locale_impl15_S_uninitializeEv                                                                                                                                                                                                               
00001031  _ZNSt12_Locale_impl17_M_throw_bad_castEv                                                                                                                                                                                                             
000062f9  _ZNSt12_Locale_impl18insert_time_facetsERPKcPcP17_Locale_name_hint                                                                                                                                                                                   
00005f0d  _ZNSt12_Locale_impl19insert_ctype_facetsERPKcPcP17_Locale_name_hint                                                                                                                                                                                  
000006c5  _ZNSt12_Locale_impl19make_classic_localeEv                                                                                                                                                                                                           
000064a1  _ZNSt12_Locale_impl21insert_collate_facetsERPKcPcP17_Locale_name_hint                                                                                                                                                                                
0000617d  _ZNSt12_Locale_impl21insert_numeric_facetsERPKcPcP17_Locale_name_hint                                                                                                                                                                                
00006b81  _ZNSt12_Locale_impl22insert_messages_facetsERPKcPcP17_Locale_name_hint                                                                                                                                                                               
00006905  _ZNSt12_Locale_impl22insert_monetary_facetsERPKcPcP17_Locale_name_hint                                                                                                                                                                               
00000afd  _ZNSt12_Locale_impl4InitC1Ev                                                                                                                                                                                                                         
00000afd  _ZNSt12_Locale_impl4InitC2Ev                                                                                                                                                                                                                         
00000b95  _ZNSt12_Locale_impl4InitD1Ev                                                                                                                                                                                                                         
00000b95  _ZNSt12_Locale_impl4InitD2Ev                                                                                                                                                                                                                         
00005947  _ZNSt12_Locale_impl6insertEPNSt6locale5facetERKNS0_2idE                                                                                                                                                                                              
000059d3  _ZNSt12_Locale_impl6insertEPS_RKNSt6locale2idE                                                                                                                                                                                                       
000002f3  _ZNSt12_Locale_implC1EPKc                                                                                                                                                                                                                            
00003c6d  _ZNSt12_Locale_implC1ERKS_                                                                                                                                                                                                                           
00006e6d  _ZNSt12_Locale_implC1EjPKc                                                                                                                                                                                                                           
000002f3  _ZNSt12_Locale_implC2EPKc                                                                                                                                                                                                                            
00003c6d  _ZNSt12_Locale_implC2ERKS_                                                                                                                                                                                                                           
00006e6d  _ZNSt12_Locale_implC2EjPKc                                                                                                                                                                                                                           
0000325b  _ZNSt12_Locale_implD1Ev                                                                                                                                                                                                                              
0000325b  _ZNSt12_Locale_implD2Ev                                                                                                                                                                                                                              
00005ea5  _ZNSt12ctype_bynameIcE7_M_initEv                                                                                                                                                                                                                     
0000793d  _ZNSt12ctype_bynameIcEC1EPKcj                                                                                                                                                                                                                        
0000793d  _ZNSt12ctype_bynameIcEC2EPKcj                                                                                                                                                                                                                        
00002c27  _ZNSt12ctype_bynameIcED0Ev                                                                                                                                                                                                                           
00002c0f  _ZNSt12ctype_bynameIcED1Ev                                                                                                                                                                                                                           
00002c0f  _ZNSt12ctype_bynameIcED2Ev                                                                                                                                                                                                                           
00007901  _ZNSt12ctype_bynameIwEC1EPKcj                                                                                                                                                                                                                        
00007901  _ZNSt12ctype_bynameIwEC2EPKcj                                                                                                                                                                                                                        
00002b95  _ZNSt12ctype_bynameIwED0Ev                                                                                                                                                                                                                           
00002b71  _ZNSt12ctype_bynameIwED1Ev                                                                                                                                                                                                                           
00002b71  _ZNSt12ctype_bynameIwED2Ev                                                                                                                                                                                                                           
00003ec3  _ZNSt12strstreambuf3strEv                                                                                                                                                                                                                            
00003ea7  _ZNSt12strstreambuf6freezeEb                                                                                                                                                                                                                         
00001009  _ZNSt12strstreambuf6setbufEPci                                                                                                                                                                                                                       
000031af  _ZNSt12strstreambuf7_M_freeEPc                                                                                                                                                                                                                       
00000f19  _ZNSt12strstreambuf7seekoffElii                                                                                                                                                                                                                      
00003061  _ZNSt12strstreambuf7seekposESt4fposIiEi                                                                                                                                                                                                              
00003083  _ZNSt12strstreambuf8_M_allocEj                                                                                                                                                                                                                       
00003d95  _ZNSt12strstreambuf8_M_setupEPcS0_i                                                                                                                                                                                                                  
0000309f  _ZNSt12strstreambuf8overflowEi                                                                                                                                                                                                                       
00000ea9  _ZNSt12strstreambuf9pbackfailEi                                                                                                                                                                                                                      
00000ef1  _ZNSt12strstreambuf9underflowEv                                                                                                                                                                                                                      
000078b1  _ZNSt12strstreambufC1EPFPvjEPFvS0_E                                                                                                                                                                                                                  
00007879  _ZNSt12strstreambufC1EPKai                                                                                                                                                                                                                           
00007841  _ZNSt12strstreambufC1EPKci                                                                                                                                                                                                                           
00007809  _ZNSt12strstreambufC1EPKhi                                                                                                                                                                                                                           
000077d1  _ZNSt12strstreambufC1EPaiS0_                                                                                                                                                                                                                         
00003dd9  _ZNSt12strstreambufC1EPciS0_                                                                                                                                                                                                                         
00007799  _ZNSt12strstreambufC1EPhiS0_                                                                                                                                                                                                                         
00003ced  _ZNSt12strstreambufC1Ei                                                                                                                                                                                                                              
000078b1  _ZNSt12strstreambufC2EPFPvjEPFvS0_E                                                                                                                                                                                                                  
00007879  _ZNSt12strstreambufC2EPKai                                                                                                                                                                                                                           
00007841  _ZNSt12strstreambufC2EPKci                                                                                                                                                                                                                           
00007809  _ZNSt12strstreambufC2EPKhi                                                                                                                                                                                                                           
000077d1  _ZNSt12strstreambufC2EPaiS0_                                                                                                                                                                                                                         
00003dd9  _ZNSt12strstreambufC2EPciS0_                                                                                                                                                                                                                         
00007799  _ZNSt12strstreambufC2EPhiS0_                                                                                                                                                                                                                         
00003ced  _ZNSt12strstreambufC2Ei                                                                                                                                                                                                                              
0000100b  _ZNSt12strstreambufD0Ev                                                                                                                                                                                                                              
000031c7  _ZNSt12strstreambufD1Ev                                                                                                                                                                                                                              
000031c7  _ZNSt12strstreambufD2Ev                                                                                                                                                                                                                              
00001057  _ZNSt13_Filebuf_base12_M_file_sizeEv                                                                                                                                                                                                                 
20010a48  _ZNSt13_Filebuf_base12_M_page_sizeE                                                                                                                                                                                                                  
00003a2d  _ZNSt13_Filebuf_base13_S_initializeEv                                                                                                                                                                                                                
000010cd  _ZNSt13_Filebuf_base7_M_mmapEll                                                                                                                                                                                                                      
0000778d  _ZNSt13_Filebuf_base7_M_openEPKci                                                                                                                                                                                                                    
000076d1  _ZNSt13_Filebuf_base7_M_openEPKcil                                                                                                                                                                                                                   
000035c1  _ZNSt13_Filebuf_base7_M_openEii                                                                                                                                                                                                                      
0000104d  _ZNSt13_Filebuf_base7_M_readEPci                                                                                                                                                                                                                     
0000105b  _ZNSt13_Filebuf_base7_M_seekEli                                                                                                                                                                                                                      
0000109d  _ZNSt13_Filebuf_base8_M_closeEv                                                                                                                                                                                                                      
000076b5  _ZNSt13_Filebuf_base8_M_unmapEPvl                                                                                                                                                                                                                    
00002f81  _ZNSt13_Filebuf_base8_M_writeEPci                                                                                                                                                                                                                    
00003571  _ZNSt13_Filebuf_baseC1Ev                                                                                                                                                                                                                             
00003571  _ZNSt13_Filebuf_baseC2Ev                                                                                                                                                                                                                             
0001f46d  _ZNSt13_TrivialUCopyIccE7_AnswerEv                                                                                                                                                                                                                   
0001bd05  _ZNSt13basic_filebufIcSt11char_traitsIcEE10_M_unshiftEv                                                                                                                                                                                              
0001a7bf  _ZNSt13basic_filebufIcSt11char_traitsIcEE12_M_seek_initEb                                                                                                                                                                                            
0001e3a1  _ZNSt13basic_filebufIcSt11char_traitsIcEE14_M_input_errorEv                                                                                                                                                                                          
0001c8b9  _ZNSt13basic_filebufIcSt11char_traitsIcEE14_M_seek_returnEli                                                                                                                                                                                         
0001e3c1  _ZNSt13basic_filebufIcSt11char_traitsIcEE15_M_output_errorEv                                                                                                                                                                                         
0001a0f5  _ZNSt13basic_filebufIcSt11char_traitsIcEE16_M_setup_codecvtERKSt6localeb                                                                                                                                                                             
00015b1d  _ZNSt13basic_filebufIcSt11char_traitsIcEE16_M_underflow_auxEv                                                                                                                                                                                        
0001ee3b  _ZNSt13basic_filebufIcSt11char_traitsIcEE18_M_exit_input_modeEv                                                                                                                                                                                      
0001b29d  _ZNSt13basic_filebufIcSt11char_traitsIcEE19_M_allocate_buffersEPci                                                                                                                                                                                   
0001eaad  _ZNSt13basic_filebufIcSt11char_traitsIcEE19_M_allocate_buffersEv                                                                                                                                                                                     
0001e2f7  _ZNSt13basic_filebufIcSt11char_traitsIcEE21_M_deallocate_buffersEv                                                                                                                                                                                   
0001ced5  _ZNSt13basic_filebufIcSt11char_traitsIcEE23_M_switch_to_input_modeEv                                                                                                                                                                                 
0001c74b  _ZNSt13basic_filebufIcSt11char_traitsIcEE24_M_switch_to_output_modeEv                                                                                                                                                                                
0001e1fd  _ZNSt13basic_filebufIcSt11char_traitsIcEE4syncEv                                                                                                                                                                                                     
000195b5  _ZNSt13basic_filebufIcSt11char_traitsIcEE5closeEv                                                                                                                                                                                                    
0001e59d  _ZNSt13basic_filebufIcSt11char_traitsIcEE5imbueERKSt6locale                                                                                                                                                                                          
0001d60f  _ZNSt13basic_filebufIcSt11char_traitsIcEE6setbufEPci                                                                                                                                                                                                 
0000f33f  _ZNSt13basic_filebufIcSt11char_traitsIcEE7seekoffElii                                                                                                                                                                                                
0001ab59  _ZNSt13basic_filebufIcSt11char_traitsIcEE7seekposESt4fposIiEi                                                                                                                                                                                        
00016315  _ZNSt13basic_filebufIcSt11char_traitsIcEE8overflowEi                                                                                                                                                                                                 
00018d11  _ZNSt13basic_filebufIcSt11char_traitsIcEE9pbackfailEi                                                                                                                                                                                                
0001c1b1  _ZNSt13basic_filebufIcSt11char_traitsIcEE9showmanycEv                                                                                                                                                                                                
0001f687  _ZNSt13basic_filebufIcSt11char_traitsIcEE9underflowEv                                                                                                                                                                                                
0001a8ad  _ZNSt13basic_filebufIcSt11char_traitsIcEEC1Ev                                                                                                                                                                                                        
0001f2b7  _ZNSt13basic_filebufIcSt11char_traitsIcEED0Ev                                                                                                                                                                                                        
0001e3e1  _ZNSt13basic_filebufIcSt11char_traitsIcEED1Ev                                                                                                                                                                                                        
0001bd5d  _ZNSt13basic_filebufIwSt11char_traitsIwEE10_M_unshiftEv                                                                                                                                                                                              
0001a835  _ZNSt13basic_filebufIwSt11char_traitsIwEE12_M_seek_initEb                                                                                                                                                                                            
0001e401  _ZNSt13basic_filebufIwSt11char_traitsIwEE14_M_input_errorEv                                                                                                                                                                                          
0001c901  _ZNSt13basic_filebufIwSt11char_traitsIwEE14_M_seek_returnEli                                                                                                                                                                                         
0001e421  _ZNSt13basic_filebufIwSt11char_traitsIwEE15_M_output_errorEv                                                                                                                                                                                         
0001a175  _ZNSt13basic_filebufIwSt11char_traitsIwEE16_M_setup_codecvtERKSt6localeb                                                                                                                                                                             
00016159  _ZNSt13basic_filebufIwSt11char_traitsIwEE16_M_underflow_auxEv                                                                                                                                                                                        
0001ee4f  _ZNSt13basic_filebufIwSt11char_traitsIwEE18_M_exit_input_modeEv                                                                                                                                                                                      
0001b1c9  _ZNSt13basic_filebufIwSt11char_traitsIwEE19_M_allocate_buffersEPwi                                                                                                                                                                                   
0001eac5  _ZNSt13basic_filebufIwSt11char_traitsIwEE19_M_allocate_buffersEv                                                                                                                                                                                     
0001e319  _ZNSt13basic_filebufIwSt11char_traitsIwEE21_M_deallocate_buffersEv                                                                                                                                                                                   
0001c795  _ZNSt13basic_filebufIwSt11char_traitsIwEE24_M_switch_to_output_modeEv                                                                                                                                                                                
0001e221  _ZNSt13basic_filebufIwSt11char_traitsIwEE4syncEv                                                                                                                                                                                                     
0001e5bb  _ZNSt13basic_filebufIwSt11char_traitsIwEE5imbueERKSt6locale                                                                                                                                                                                          
0001d641  _ZNSt13basic_filebufIwSt11char_traitsIwEE6setbufEPwi                                                                                                                                                                                                 
0000f129  _ZNSt13basic_filebufIwSt11char_traitsIwEE7seekoffElii                                                                                                                                                                                                
0001abc9  _ZNSt13basic_filebufIwSt11char_traitsIwEE7seekposESt4fposIiEi                                                                                                                                                                                        
0001713d  _ZNSt13basic_filebufIwSt11char_traitsIwEE8overflowEi                                                                                                                                                                                                 
00018da5  _ZNSt13basic_filebufIwSt11char_traitsIwEE9pbackfailEi                                                                                                                                                                                                
0001bf11  _ZNSt13basic_filebufIwSt11char_traitsIwEE9showmanycEv                                                                                                                                                                                                
0001ae67  _ZNSt13basic_filebufIwSt11char_traitsIwEE9underflowEv                                                                                                                                                                                                
0001a921  _ZNSt13basic_filebufIwSt11char_traitsIwEEC1Ev                                                                                                                                                                                                        
0001f2c5  _ZNSt13basic_filebufIwSt11char_traitsIwEED0Ev                                                                                                                                                                                                        
00019c45  _ZNSt13basic_filebufIwSt11char_traitsIwEED1Ev                                                                                                                                                                                                        
0001ec39  _ZNSt13basic_istreamIwSt11char_traitsIwEED0Ev                                                                                                                                                                                                        
0001f08d  _ZNSt13basic_istreamIwSt11char_traitsIwEED1Ev                                                                                                                                                                                                        
0001d4dd  _ZNSt13basic_ostreamIwSt11char_traitsIwEEC1EPSt15basic_streambufIwS1_E                                                                                                                                                                               
0001f2d3  _ZNSt13basic_ostreamIwSt11char_traitsIwEED0Ev                                                                                                                                                                                                        
0001f2e1  _ZNSt13basic_ostreamIwSt11char_traitsIwEED1Ev                                                                                                                                                                                                        
00005ecd  _ZNSt14codecvt_bynameIcciEC1EPKcj                                                                                                                                                                                                                    
00005ecd  _ZNSt14codecvt_bynameIcciEC2EPKcj                                                                                                                                                                                                                    
0000207d  _ZNSt14codecvt_bynameIcciED0Ev                                                                                                                                                                                                                       
00002085  _ZNSt14codecvt_bynameIcciED1Ev                                                                                                                                                                                                                       
00002085  _ZNSt14codecvt_bynameIcciED2Ev                                                                                                                                                                                                                       
0000767d  _ZNSt14codecvt_bynameIwciEC1EPKcj                                                                                                                                                                                                                    
0000767d  _ZNSt14codecvt_bynameIwciEC2EPKcj                                                                                                                                                                                                                    
000028bb  _ZNSt14codecvt_bynameIwciED0Ev                                                                                                                                                                                                                       
000028a9  _ZNSt14codecvt_bynameIwciED1Ev                                                                                                                                                                                                                       
000028a9  _ZNSt14codecvt_bynameIwciED2Ev                                                                                                                                                                                                                       
0000760f  _ZNSt14collate_bynameIcEC1EPKcj                                                                                                                                                                                                                      
0000760f  _ZNSt14collate_bynameIcEC2EPKcj                                                                                                                                                                                                                      
0000262d  _ZNSt14collate_bynameIcED0Ev                                                                                                                                                                                                                         
0000261b  _ZNSt14collate_bynameIcED1Ev                                                                                                                                                                                                                         
0000261b  _ZNSt14collate_bynameIcED2Ev                                                                                                                                                                                                                         
000075cb  _ZNSt14collate_bynameIwEC1EPKcj                                                                                                                                                                                                                      
000075cb  _ZNSt14collate_bynameIwEC2EPKcj                                                                                                                                                                                                                      
000024bd  _ZNSt14collate_bynameIwED0Ev                                                                                                                                                                                                                         
000024a7  _ZNSt14collate_bynameIwED1Ev                                                                                                                                                                                                                         
000024a7  _ZNSt14collate_bynameIwED2Ev                                                                                                                                                                                                                         
0001847d  _ZNSt15basic_streambufIcSt11char_traitsIcEE10_M_xsputncEci                                                                                                                                                                                           
0001e33b  _ZNSt15basic_streambufIcSt11char_traitsIcEE4setgEPcS3_S3_                                                                                                                                                                                            
0001e441  _ZNSt15basic_streambufIcSt11char_traitsIcEE4setpEPcS3_                                                                                                                                                                                               
0001f479  _ZNSt15basic_streambufIcSt11char_traitsIcEE4syncEv                                                                                                                                                                                                   
0001ec4f  _ZNSt15basic_streambufIcSt11char_traitsIcEE5gbumpEi                                                                                                                                                                                                  
0001f485  _ZNSt15basic_streambufIcSt11char_traitsIcEE5imbueERKSt6locale                                                                                                                                                                                        
0001ec65  _ZNSt15basic_streambufIcSt11char_traitsIcEE5pbumpEi                                                                                                                                                                                                  
0001df19  _ZNSt15basic_streambufIcSt11char_traitsIcEE5sgetcEv                                                                                                                                                                                                  
0001e92b  _ZNSt15basic_streambufIcSt11char_traitsIcEE5sputnEPKci                                                                                                                                                                                               
0001d2c3  _ZNSt15basic_streambufIcSt11char_traitsIcEE5uflowEv                                                                                                                                                                                                  
0001dd19  _ZNSt15basic_streambufIcSt11char_traitsIcEE6sbumpcEv                                                                                                                                                                                                 
0001f09d  _ZNSt15basic_streambufIcSt11char_traitsIcEE6setbufEPci                                                                                                                                                                                               
00018281  _ZNSt15basic_streambufIcSt11char_traitsIcEE6xsgetnEPci                                                                                                                                                                                               
00018125  _ZNSt15basic_streambufIcSt11char_traitsIcEE6xsputnEPKci                                                                                                                                                                                              
0001ef75  _ZNSt15basic_streambufIcSt11char_traitsIcEE7pubsyncEv                                                                                                                                                                                                
0001e35d  _ZNSt15basic_streambufIcSt11char_traitsIcEE7seekoffElii                                                                                                                                                                                              
0001e119  _ZNSt15basic_streambufIcSt11char_traitsIcEE7seekposESt4fposIiEi                                                                                                                                                                                      
0001f0ad  _ZNSt15basic_streambufIcSt11char_traitsIcEE8_M_gbumpEi                                                                                                                                                                                               
0001f491  _ZNSt15basic_streambufIcSt11char_traitsIcEE8overflowEi                                                                                                                                                                                               
0001cd95  _ZNSt15basic_streambufIcSt11char_traitsIcEE8pubimbueERKSt6locale                                                                                                                                                                                     
0001e5d9  _ZNSt15basic_streambufIcSt11char_traitsIcEE9_M_sputncEci                                                                                                                                                                                             
0001f49d  _ZNSt15basic_streambufIcSt11char_traitsIcEE9pbackfailEi                                                                                                                                                                                              
0001f4a9  _ZNSt15basic_streambufIcSt11char_traitsIcEE9showmanycEv                                                                                                                                                                                              
0001ca65  _ZNSt15basic_streambufIcSt11char_traitsIcEE9sputbackcEc                                                                                                                                                                                              
0001f5bb  _ZNSt15basic_streambufIcSt11char_traitsIcEE9underflowEv                                                                                                                                                                                              
0001cdd5  _ZNSt15basic_streambufIcSt11char_traitsIcEEC1Ev                                                                                                                                                                                                      
0001f4b5  _ZNSt15basic_streambufIcSt11char_traitsIcEEC2Ev                                                                                                                                                                                                      
0001ec7b  _ZNSt15basic_streambufIcSt11char_traitsIcEED0Ev                                                                                                                                                                                                      
0001f0bd  _ZNSt15basic_streambufIcSt11char_traitsIcEED1Ev                                                                                                                                                                                                      
0001f4c1  _ZNSt15basic_streambufIcSt11char_traitsIcEED2Ev                                                                                                                                                                                                      
0001bb3f  _ZNSt15basic_streambufIwSt11char_traitsIwEE10_M_xsputncEwi                                                                                                                                                                                           
0001f68b  _ZNSt15basic_streambufIwSt11char_traitsIwEE4syncEv                                                                                                                                                                                                   
0000e3e7  _ZNSt15basic_streambufIwSt11char_traitsIwEE5imbueERKSt6locale                                                                                                                                                                                        
0001e245  _ZNSt15basic_streambufIwSt11char_traitsIwEE5uflowEv                                                                                                                                                                                                  
0001e945  _ZNSt15basic_streambufIwSt11char_traitsIwEE6sbumpcEv                                                                                                                                                                                                 
0000fb4b  _ZNSt15basic_streambufIwSt11char_traitsIwEE6setbufEPwi                                                                                                                                                                                               
0001b5d5  _ZNSt15basic_streambufIwSt11char_traitsIwEE6xsgetnEPwi                                                                                                                                                                                               
0001b63b  _ZNSt15basic_streambufIwSt11char_traitsIwEE6xsputnEPKwi                                                                                                                                                                                              
0001e95f  _ZNSt15basic_streambufIwSt11char_traitsIwEE7seekoffElii                                                                                                                                                                                              
0001e73d  _ZNSt15basic_streambufIwSt11char_traitsIwEE7seekposESt4fposIiEi                                                                                                                                                                                      
0001f65f  _ZNSt15basic_streambufIwSt11char_traitsIwEE8overflowEi                                                                                                                                                                                               
0001d36d  _ZNSt15basic_streambufIwSt11char_traitsIwEE8pubimbueERKSt6locale                                                                                                                                                                                     
0001f665  _ZNSt15basic_streambufIwSt11char_traitsIwEE9pbackfailEi                                                                                                                                                                                              
0001f68f  _ZNSt15basic_streambufIwSt11char_traitsIwEE9showmanycEv                                                                                                                                                                                              
0001f66b  _ZNSt15basic_streambufIwSt11char_traitsIwEE9underflowEv                                                                                                                                                                                              
0001df41  _ZNSt15basic_streambufIwSt11char_traitsIwEEC1Ev                                                                                                                                                                                                      
0001f2ef  _ZNSt15basic_streambufIwSt11char_traitsIwEED0Ev                                                                                                                                                                                                      
0001f0cd  _ZNSt15basic_streambufIwSt11char_traitsIwEED1Ev                                                                                                                                                                                                      
0001313d  _ZNSt15basic_stringbufIcSt11char_traitsIcESaIcEE10_M_xsputncEci                                                                                                                                                                                      
0001d511  _ZNSt15basic_stringbufIcSt11char_traitsIcESaIcEE5uflowEv                                                                                                                                                                                             
000165a9  _ZNSt15basic_stringbufIcSt11char_traitsIcESaIcEE6setbufEPci                                                                                                                                                                                          
00012561  _ZNSt15basic_stringbufIcSt11char_traitsIcESaIcEE6xsputnEPKci                                                                                                                                                                                         
00010d43  _ZNSt15basic_stringbufIcSt11char_traitsIcESaIcEE7seekoffElii                                                                                                                                                                                         
000121a9  _ZNSt15basic_stringbufIcSt11char_traitsIcESaIcEE7seekposESt4fposIiEi                                                                                                                                                                                 
0001f4cd  _ZNSt15basic_stringbufIcSt11char_traitsIcESaIcEE8_S_startERKSs                                                                                                                                                                                       
000138fd  _ZNSt15basic_stringbufIcSt11char_traitsIcESaIcEE8overflowEi                                                                                                                                                                                          
0001ec91  _ZNSt15basic_stringbufIcSt11char_traitsIcESaIcEE9_S_finishERKSs                                                                                                                                                                                      
00018a19  _ZNSt15basic_stringbufIcSt11char_traitsIcESaIcEE9pbackfailEi                                                                                                                                                                                         
0001df69  _ZNSt15basic_stringbufIcSt11char_traitsIcESaIcEE9underflowEv                                                                                                                                                                                         
0001d2fd  _ZNSt15basic_stringbufIcSt11char_traitsIcESaIcEEC1Ei                                                                                                                                                                                                 
0001eca7  _ZNSt15basic_stringbufIcSt11char_traitsIcESaIcEED0Ev                                                                                                                                                                                                 
0001ecbd  _ZNSt15basic_stringbufIcSt11char_traitsIcESaIcEED1Ev                                                                                                                                                                                                 
00006b0f  _ZNSt15messages_bynameIcEC1EP16_Locale_messages                                                                                                                                                                                                      
000075a1  _ZNSt15messages_bynameIcEC1EPKcj                                                                                                                                                                                                                     
00006b0f  _ZNSt15messages_bynameIcEC2EP16_Locale_messages                                                                                                                                                                                                      
000075a1  _ZNSt15messages_bynameIcEC2EPKcj                                                                                                                                                                                                                     
00001b8b  _ZNSt15messages_bynameIcED0Ev                                                                                                                                                                                                                        
00001b77  _ZNSt15messages_bynameIcED1Ev                                                                                                                                                                                                                        
00001b77  _ZNSt15messages_bynameIcED2Ev                                                                                                                                                                                                                        
00006b39  _ZNSt15messages_bynameIwEC1EP16_Locale_messages                                                                                                                                                                                                      
0000756d  _ZNSt15messages_bynameIwEC1EPKcj                                                                                                                                                                                                                     
00006b39  _ZNSt15messages_bynameIwEC2EP16_Locale_messages                                                                                                                                                                                                      
0000756d  _ZNSt15messages_bynameIwEC2EPKcj                                                                                                                                                                                                                     
00002dab  _ZNSt15messages_bynameIwED0Ev                                                                                                                                                                                                                        
00002d97  _ZNSt15messages_bynameIwED1Ev                                                                                                                                                                                                                        
00002d97  _ZNSt15messages_bynameIwED2Ev                                                                                                                                                                                                                        
0000752f  _ZNSt15numpunct_bynameIcEC1EPKcj                                                                                                                                                                                                                     
0000752f  _ZNSt15numpunct_bynameIcEC2EPKcj                                                                                                                                                                                                                     
00002297  _ZNSt15numpunct_bynameIcED0Ev                                                                                                                                                                                                                        
00002285  _ZNSt15numpunct_bynameIcED1Ev                                                                                                                                                                                                                        
00002285  _ZNSt15numpunct_bynameIcED2Ev                                                                                                                                                                                                                        
000074f1  _ZNSt15numpunct_bynameIwEC1EPKcj                                                                                                                                                                                                                     
000074f1  _ZNSt15numpunct_bynameIwEC2EPKcj                                                                                                                                                                                                                     
00002219  _ZNSt15numpunct_bynameIwED0Ev                                                                                                                                                                                                                        
00002207  _ZNSt15numpunct_bynameIwED1Ev                                                                                                                                                                                                                        
00002207  _ZNSt15numpunct_bynameIwED2Ev                                                                                                                                                                                                                        
00018e39  _ZNSt15time_get_bynameIcSt19istreambuf_iteratorIcSt11char_traitsIcEEED0Ev                                                                                                                                                                            
00019645  _ZNSt15time_get_bynameIcSt19istreambuf_iteratorIcSt11char_traitsIcEEED1Ev                                                                                                                                                                            
00018ecd  _ZNSt15time_get_bynameIwSt19istreambuf_iteratorIwSt11char_traitsIwEEED0Ev                                                                                                                                                                            
000196d1  _ZNSt15time_get_bynameIwSt19istreambuf_iteratorIwSt11char_traitsIwEEED1Ev                                                                                                                                                                            
00018f61  _ZNSt15time_put_bynameIcSt19ostreambuf_iteratorIcSt11char_traitsIcEEED0Ev                                                                                                                                                                            
0001975d  _ZNSt15time_put_bynameIcSt19ostreambuf_iteratorIcSt11char_traitsIcEEED1Ev                                                                                                                                                                            
00018ff5  _ZNSt15time_put_bynameIwSt19ostreambuf_iteratorIwSt11char_traitsIwEEED0Ev                                                                                                                                                                            
000197e9  _ZNSt15time_put_bynameIwSt19ostreambuf_iteratorIwSt11char_traitsIwEEED1Ev                                                                                                                                                                            
000067bd  _ZNSt17moneypunct_bynameIcLb0EEC1EP16_Locale_monetary                                                                                                                                                                                                
000074a5  _ZNSt17moneypunct_bynameIcLb0EEC1EPKcj                                                                                                                                                                                                               
000067bd  _ZNSt17moneypunct_bynameIcLb0EEC2EP16_Locale_monetary                                                                                                                                                                                                
000074a5  _ZNSt17moneypunct_bynameIcLb0EEC2EPKcj                                                                                                                                                                                                               
00001e15  _ZNSt17moneypunct_bynameIcLb0EED0Ev                                                                                                                                                                                                                  
00001dfd  _ZNSt17moneypunct_bynameIcLb0EED1Ev                                                                                                                                                                                                                  
00001dfd  _ZNSt17moneypunct_bynameIcLb0EED2Ev                                                                                                                                                                                                                  
0000688b  _ZNSt17moneypunct_bynameIcLb1EEC1EP16_Locale_monetary                                                                                                                                                                                                
0000745f  _ZNSt17moneypunct_bynameIcLb1EEC1EPKcj                                                                                                                                                                                                               
0000688b  _ZNSt17moneypunct_bynameIcLb1EEC2EP16_Locale_monetary                                                                                                                                                                                                
0000745f  _ZNSt17moneypunct_bynameIcLb1EEC2EPKcj                                                                                                                                                                                                               
00001d8f  _ZNSt17moneypunct_bynameIcLb1EED0Ev                                                                                                                                                                                                                  
00001d7d  _ZNSt17moneypunct_bynameIcLb1EED1Ev                                                                                                                                                                                                                  
00001d7d  _ZNSt17moneypunct_bynameIcLb1EED2Ev                                                                                                                                                                                                                  
000068bd  _ZNSt17moneypunct_bynameIwLb0EEC1EP16_Locale_monetary                                                                                                                                                                                                
0000741d  _ZNSt17moneypunct_bynameIwLb0EEC1EPKcj                                                                                                                                                                                                               
000068bd  _ZNSt17moneypunct_bynameIwLb0EEC2EP16_Locale_monetary                                                                                                                                                                                                
0000741d  _ZNSt17moneypunct_bynameIwLb0EEC2EPKcj                                                                                                                                                                                                               
00001cff  _ZNSt17moneypunct_bynameIwLb0EED0Ev                                                                                                                                                                                                                  
00001ced  _ZNSt17moneypunct_bynameIwLb0EED1Ev                                                                                                                                                                                                                  
00001ced  _ZNSt17moneypunct_bynameIwLb0EED2Ev                                                                                                                                                                                                                  
000068e1  _ZNSt17moneypunct_bynameIwLb1EEC1EP16_Locale_monetary                                                                                                                                                                                                
000073b1  _ZNSt17moneypunct_bynameIwLb1EEC1EPKcj                                                                                                                                                                                                               
000068e1  _ZNSt17moneypunct_bynameIwLb1EEC2EP16_Locale_monetary                                                                                                                                                                                                
000073b1  _ZNSt17moneypunct_bynameIwLb1EEC2EPKcj                                                                                                                                                                                                               
00001c61  _ZNSt17moneypunct_bynameIwLb1EED0Ev                                                                                                                                                                                                                  
00001c4f  _ZNSt17moneypunct_bynameIwLb1EED1Ev                                                                                                                                                                                                                  
00001c4f  _ZNSt17moneypunct_bynameIwLb1EED2Ev                                                                                                                                                                                                                  
0001e759  _ZNSt18__char_traits_baseIciE11eq_int_typeERKiS2_                                                                                                                                                                                                    
0001e775  _ZNSt18__char_traits_baseIciE2eqERKcS2_                                                                                                                                                                                                              
0001f671  _ZNSt18__char_traits_baseIciE3eofEv                                                                                                                                                                                                                  
0001e791  _ZNSt18__char_traits_baseIciE4copyEPcPKcj                                                                                                                                                                                                            
0001e7ad  _ZNSt18__char_traits_baseIciE4moveEPcPKcj                                                                                                                                                                                                            
0001e5f7  _ZNSt18__char_traits_baseIciE7not_eofERKi                                                                                                                                                                                                            
0001ef87  _ZNSt18basic_stringstreamIcSt11char_traitsIcESaIcEEC1Ei                                                                                                                                                                                              
00019f6d  _ZNSt18basic_stringstreamIcSt11char_traitsIcESaIcEEC2Ei                                                                                                                                                                                              
0001ecd3  _ZNSt18basic_stringstreamIcSt11char_traitsIcESaIcEED0Ev                                                                                                                                                                                              
0001f2fd  _ZNSt18basic_stringstreamIcSt11char_traitsIcESaIcEED1Ev                                                                                                                                                                                              
0001ce15  _ZNSt18basic_stringstreamIcSt11char_traitsIcESaIcEED2Ev                                                                                                                                                                                              
0001de49  _ZNSt19istreambuf_iteratorIcSt11char_traitsIcEEppEi                                                                                                                                                                                                  
0001de73  _ZNSt19istreambuf_iteratorIwSt11char_traitsIwEEppEi                                                                                                                                                                                                  
0001e461  _ZNSt19ostreambuf_iteratorIcSt11char_traitsIcEEC1EPSt15basic_streambufIcS1_E                                                                                                                                                                         
0001d673  _ZNSt19ostreambuf_iteratorIcSt11char_traitsIcEEaSEc                                                                                                                                                                                                  
0001d6a5  _ZNSt19ostreambuf_iteratorIwSt11char_traitsIwEEaSEw                                                                                                                                                                                                  
0001e979  _ZNSt4fposIiEC1El                                                                                                                                                                                                                                    
0001eadd  _ZNSt4fposIiEmIEl                                                                                                                                                                                                                                    
0001e269  _ZNSt4fposIiEmiEl                                                                                                                                                                                                                                    
0001eaf5  _ZNSt4priv10_Sl_globalIbE14__splice_afterEPNS_16_Slist_node_baseES3_S3_                                                                                                                                                                              
0001cd11  _ZNSt4priv10_Stl_primeIbE12_S_next_sizeEj                                                                                                                                                                                                            
0001b9bf  _ZNSt4priv10_Stl_primeIbE13_S_prev_sizesEjRPKjS4_                                                                                                                                                                                                    
0001f0dd  _ZNSt4priv10_Stl_primeIbE9_S_primesERj                                                                                                                                                                                                               
0001eb0d  _ZNSt4priv10__distanceIPKcEENSt15iterator_traitsIT_E15difference_typeERKS4_S8_RKSt26random_access_iterator_tag                                                                                                                                       
000073ad  _ZNSt4priv11_GetFacetIdEPKSt7num_getIcSt19istreambuf_iteratorIcSt11char_traitsIcEEE                                                                                                                                                                  
000073a9  _ZNSt4priv11_GetFacetIdEPKSt7num_getIwSt19istreambuf_iteratorIwSt11char_traitsIwEEE                                                                                                                                                                  
000073a5  _ZNSt4priv11_GetFacetIdEPKSt7num_putIcSt19ostreambuf_iteratorIcSt11char_traitsIcEEE                                                                                                                                                                  
000073a1  _ZNSt4priv11_GetFacetIdEPKSt7num_putIwSt19ostreambuf_iteratorIwSt11char_traitsIwEEE                                                                                                                                                                  
0000739d  _ZNSt4priv11_GetFacetIdEPKSt8time_getIcSt19istreambuf_iteratorIcSt11char_traitsIcEEE                                                                                                                                                                 
00007399  _ZNSt4priv11_GetFacetIdEPKSt8time_getIwSt19istreambuf_iteratorIwSt11char_traitsIwEEE                                                                                                                                                                 
00007395  _ZNSt4priv11_GetFacetIdEPKSt8time_putIcSt19ostreambuf_iteratorIcSt11char_traitsIcEEE                                                                                                                                                                 
00007391  _ZNSt4priv11_GetFacetIdEPKSt8time_putIwSt19ostreambuf_iteratorIwSt11char_traitsIwEEE                                                                                                                                                                 
0000738d  _ZNSt4priv11_GetFacetIdEPKSt9money_getIcSt19istreambuf_iteratorIcSt11char_traitsIcEEE                                                                                                                                                                
00007389  _ZNSt4priv11_GetFacetIdEPKSt9money_getIwSt19istreambuf_iteratorIwSt11char_traitsIwEEE                                                                                                                                                                
00007385  _ZNSt4priv11_GetFacetIdEPKSt9money_putIcSt19ostreambuf_iteratorIcSt11char_traitsIcEEE                                                                                                                                                                
00007381  _ZNSt4priv11_GetFacetIdEPKSt9money_putIwSt19ostreambuf_iteratorIwSt11char_traitsIwEEE                                                                                                                                                                
0001f0ed  _ZNSt4priv11_GetFacetIdISt5ctypeIcEEERNSt6locale2idEPKT_                                                                                                                                                                                             
0001d949  _ZNSt4priv11_Slist_baseISt4pairIKSsS1_IPvjEESaIS5_EE14_M_erase_afterEPNS_16_Slist_node_baseES9_                                                                                                                                                      
0001df91  _ZNSt4priv11_Slist_baseISt4pairIKiSt6localeESaIS4_EE14_M_erase_afterEPNS_16_Slist_node_baseES8_                                                                                                                                                      
00019875  _ZNSt4priv11__copy_signISt19istreambuf_iteratorIcSt11char_traitsIcEEcEET_S5_S5_RNS_16__basic_iostringIcEET0_S9_                                                                                                                                      
00019901  _ZNSt4priv11__copy_signISt19istreambuf_iteratorIwSt11char_traitsIwEEwEET_S5_S5_RNS_16__basic_iostringIcEET0_S9_                                                                                                                                      
00019493  _ZNSt4priv11__put_floatISt19ostreambuf_iteratorIcSt11char_traitsIcEEEET_RNS_16__basic_iostringIcEES5_RSt8ios_basecccjRKSs                                                                                                                            
000122ed  _ZNSt4priv11__put_floatISt19ostreambuf_iteratorIwSt11char_traitsIwEEEET_RNS_16__basic_iostringIcEES5_RSt8ios_basewwwjRKSs                                                                                                                            
0001c203  _ZNSt4priv11__subformatIcNS_10_Time_InfoEEEvRNS_16__basic_iostringIT_EERKSt5ctypeIS3_ERKSsRKT0_PKSt2tm                                                                                                                                               
0001c255  _ZNSt4priv11__subformatIwNS_11_WTime_InfoEEEvRNS_16__basic_iostringIT_EERKSt5ctypeIS3_ERKSsRKT0_PKSt2tm                                                                                                                                              
0001d8b9  _ZNSt4priv11__ucopy_auxIPcS1_EET0_T_S3_S2_RKSt11__true_type                                                                                                                                                                                          
0001d6d7  _ZNSt4priv12_String_baseIcNS_20__iostring_allocatorIcEEE17_M_allocate_blockEj                                                                                                                                                                        
0001c5d1  _ZNSt4priv12_String_baseIcSaIcEE17_M_allocate_blockEj                                                                                                                                                                                                
0001de9d  _ZNSt4priv12_String_baseIcSaIcEE19_M_deallocate_blockEv                                                                                                                                                                                              
00018705  _ZNSt4priv12_String_baseIcSaIcEE7_M_swapERS2_                                                                                                                                                                                                        
0001f30b  _ZNSt4priv12_String_baseIcSaIcEE8_M_StartEv                                                                                                                                                                                                          
0001e37f  _ZNSt4priv12_String_baseIcSaIcEE8_M_resetEPcS3_S3_                                                                                                                                                                                                   
0001f319  _ZNSt4priv12_String_baseIcSaIcEE9_M_FinishEv                                                                                                                                                                                                         
0001e7c9  _ZNSt4priv12_String_baseIcSaIcEEC1ERKS1_                                                                                                                                                                                                             
0001e13f  _ZNSt4priv12_String_baseIcSaIcEEC1ERKS1_j                                                                                                                                                                                                            
0001f0fd  _ZNSt4priv12_String_baseIcSaIcEEC2ERKS1_                                                                                                                                                                                                             
0001ee63  _ZNSt4priv12_String_baseIcSaIcEEC2ERKS1_j                                                                                                                                                                                                            
0001ece9  _ZNSt4priv12_String_baseIcSaIcEED1Ev                                                                                                                                                                                                                 
0001f4d9  _ZNSt4priv12_String_baseIcSaIcEED2Ev                                                                                                                                                                                                                 
0001d0f9  _ZNSt4priv12_String_baseIwNS_20__iostring_allocatorIwEEE17_M_allocate_blockEj                                                                                                                                                                        
0001d8e9  _ZNSt4priv12_String_baseIwSaIwEE17_M_allocate_blockEj                                                                                                                                                                                                
00016829  _ZNSt4priv12_String_baseIwSaIwEE7_M_swapERS2_                                                                                                                                                                                                        
00002ea5  _ZNSt4priv12__get_fdigitERwPKw                                                                                                                                                                                                                       
0001b705  _ZNSt4priv12__get_stringISt19istreambuf_iteratorIcSt11char_traitsIcEEPcEESt4pairIT_bES7_S7_T0_S9_                                                                                                                                                    
0001b769  _ZNSt4priv12__get_stringISt19istreambuf_iteratorIwSt11char_traitsIwEEPwEESt4pairIT_bES7_S7_T0_S9_                                                                                                                                                    
000183d5  _ZNSt4priv12__init_bostrIcSt11char_traitsIcEEEbRSt13basic_ostreamIT_T0_E                                                                                                                                                                             
0000ecdf  _ZNSt4priv12__read_floatISt19istreambuf_iteratorIcSt11char_traitsIcEEcEEbRNS_16__basic_iostringIcEERT_S9_RKSt5ctypeIT0_ERKSt8numpunctISB_E                                                                                                           
0000eaa9  _ZNSt4priv12__read_floatISt19istreambuf_iteratorIwSt11char_traitsIwEEwEEbRNS_16__basic_iostringIcEERT_S9_RKSt5ctypeIT0_ERKSt8numpunctISB_E                                                                                                           
0001e7e5  _ZNSt4priv12__ucopy_ptrsIPcS1_EET0_T_S3_S2_RKSt11__true_type                                                                                                                                                                                         
00019d55  _ZNSt4priv13__copy_digitsISt19istreambuf_iteratorIcSt11char_traitsIcEEcEEbRT_S5_RNS_16__basic_iostringIcEEPKT0_                                                                                                                                      
00019089  _ZNSt4priv13__copy_digitsISt19istreambuf_iteratorIwSt11char_traitsIwEEwEEbRT_S5_RNS_16__basic_iostringIcEEPKT0_                                                                                                                                      
00010491  _ZNSt4priv13__do_put_boolIcSt19ostreambuf_iteratorIcSt11char_traitsIcEEEET0_S5_RSt8ios_baseT_b                                                                                                                                                       
0000ff15  _ZNSt4priv13__do_put_boolIwSt19ostreambuf_iteratorIwSt11char_traitsIwEEEET0_S5_RSt8ios_baseT_b                                                                                                                                                       
000113b5  _ZNSt4priv13__get_integerIPcecEEbRT_S3_iRT0_ibT1_RKSsRKSt12__false_type                                                                                                                                                                              
0001152d  _ZNSt4priv13__get_integerIPwewEEbRT_S3_iRT0_ibT1_RKSsRKSt12__false_type                                                                                                                                                                              
00013a0d  _ZNSt4priv13__get_integerISt19istreambuf_iteratorIcSt11char_traitsIcEEicEEbRT_S6_iRT0_ibT1_RKSsRKSt12__false_type                                                                                                                                    
00013b19  _ZNSt4priv13__get_integerISt19istreambuf_iteratorIcSt11char_traitsIcEEjcEEbRT_S6_iRT0_ibT1_RKSsRKSt12__false_type                                                                                                                                    
00013383  _ZNSt4priv13__get_integerISt19istreambuf_iteratorIcSt11char_traitsIcEElcEEbRT_S6_iRT0_ibT1_RKSsRKSt11__true_type                                                                                                                                     
00013c25  _ZNSt4priv13__get_integerISt19istreambuf_iteratorIcSt11char_traitsIcEEmcEEbRT_S6_iRT0_ibT1_RKSsRKSt12__false_type                                                                                                                                    
000135bf  _ZNSt4priv13__get_integerISt19istreambuf_iteratorIcSt11char_traitsIcEEtcEEbRT_S6_iRT0_ibT1_RKSsRKSt12__false_type                                                                                                                                    
000116a5  _ZNSt4priv13__get_integerISt19istreambuf_iteratorIcSt11char_traitsIcEExcEEbRT_S6_iRT0_ibT1_RKSsRKSt11__true_type                                                                                                                                     
000100e9  _ZNSt4priv13__get_integerISt19istreambuf_iteratorIcSt11char_traitsIcEEycEEbRT_S6_iRT0_ibT1_RKSsRKSt12__false_type                                                                                                                                    
00013d31  _ZNSt4priv13__get_integerISt19istreambuf_iteratorIwSt11char_traitsIwEEiwEEbRT_S6_iRT0_ibT1_RKSsRKSt12__false_type                                                                                                                                    
00013e3d  _ZNSt4priv13__get_integerISt19istreambuf_iteratorIwSt11char_traitsIwEEjwEEbRT_S6_iRT0_ibT1_RKSsRKSt12__false_type                                                                                                                                    
000134a1  _ZNSt4priv13__get_integerISt19istreambuf_iteratorIwSt11char_traitsIwEElwEEbRT_S6_iRT0_ibT1_RKSsRKSt11__true_type                                                                                                                                     
00013f49  _ZNSt4priv13__get_integerISt19istreambuf_iteratorIwSt11char_traitsIwEEmwEEbRT_S6_iRT0_ibT1_RKSsRKSt12__false_type                                                                                                                                    
000136d3  _ZNSt4priv13__get_integerISt19istreambuf_iteratorIwSt11char_traitsIwEEtwEEbRT_S6_iRT0_ibT1_RKSsRKSt12__false_type                                                                                                                                    
00011819  _ZNSt4priv13__get_integerISt19istreambuf_iteratorIwSt11char_traitsIwEExwEEbRT_S6_iRT0_ibT1_RKSsRKSt11__true_type                                                                                                                                     
000102bd  _ZNSt4priv13__get_integerISt19istreambuf_iteratorIwSt11char_traitsIwEEywEEbRT_S6_iRT0_ibT1_RKSsRKSt12__false_type                                                                                                                                    
0001d977  _ZNSt4priv13__lower_boundIPKjjNS_8_ti_lessIjEES4_iEET_S5_S5_RKT0_T1_T2_PT3_                                                                                                                                                                          
00014959  _ZNSt4priv13__put_integerISt19ostreambuf_iteratorIcSt11char_traitsIcEEEET_PcS6_S5_RSt8ios_baseic                                                                                                                                                     
00013015  _ZNSt4priv13__put_integerISt19ostreambuf_iteratorIwSt11char_traitsIwEEEET_PcS6_S5_RSt8ios_baseiw                                                                                                                                                     
000013d9  _ZNSt4priv13__write_floatERNS_16__basic_iostringIcEEiid                                                                                                                                                                                              
00001379  _ZNSt4priv13__write_floatERNS_16__basic_iostringIcEEiie                                                                                                                                                                                              
0001ee77  _ZNSt4priv14_Is_not_wspaceISt11char_traitsIcEEC1EPKSt5ctypeIcE                                                                                                                                                                                       
00006299  _ZNSt4priv14__acquire_timeERPKcPcP17_Locale_name_hintPi                                                                                                                                                                                              
000168fd  _ZNSt4priv14__do_get_floatISt19istreambuf_iteratorIcSt11char_traitsIcEEdcEET_RS5_S6_RSt8ios_baseRiRT0_PT1_                                                                                                                                           
000169d1  _ZNSt4priv14__do_get_floatISt19istreambuf_iteratorIcSt11char_traitsIcEEecEET_RS5_S6_RSt8ios_baseRiRT0_PT1_                                                                                                                                           
00016aa5  _ZNSt4priv14__do_get_floatISt19istreambuf_iteratorIcSt11char_traitsIcEEfcEET_RS5_S6_RSt8ios_baseRiRT0_PT1_                                                                                                                                           
00016b79  _ZNSt4priv14__do_get_floatISt19istreambuf_iteratorIwSt11char_traitsIwEEdwEET_RS5_S6_RSt8ios_baseRiRT0_PT1_                                                                                                                                           
00016c4d  _ZNSt4priv14__do_get_floatISt19istreambuf_iteratorIwSt11char_traitsIwEEewEET_RS5_S6_RSt8ios_baseRiRT0_PT1_                                                                                                                                           
00016d21  _ZNSt4priv14__do_get_floatISt19istreambuf_iteratorIwSt11char_traitsIwEEfwEET_RS5_S6_RSt8ios_baseRiRT0_PT1_                                                                                                                                           
00014265  _ZNSt4priv14__do_put_floatIcSt19ostreambuf_iteratorIcSt11char_traitsIcEEdEET0_S5_RSt8ios_baseT_T1_                                                                                                                                                   
00014365  _ZNSt4priv14__do_put_floatIcSt19ostreambuf_iteratorIcSt11char_traitsIcEEeEET0_S5_RSt8ios_baseT_T1_                                                                                                                                                   
00014465  _ZNSt4priv14__do_put_floatIwSt19ostreambuf_iteratorIwSt11char_traitsIwEEdEET0_S5_RSt8ios_baseT_T1_                                                                                                                                                   
00014161  _ZNSt4priv14__do_put_floatIwSt19ostreambuf_iteratorIwSt11char_traitsIwEEeEET0_S5_RSt8ios_baseT_T1_                                                                                                                                                   
0000be11  _ZNSt4priv14__money_do_getIcSt19istreambuf_iteratorIcSt11char_traitsIcEESsEET0_S5_S5_bRSt8ios_baseRiRT1_RbPT_                                                                                                                                        
0000c3a5  _ZNSt4priv14__money_do_getIwSt19istreambuf_iteratorIwSt11char_traitsIwEESbIwS3_SaIwEEEET0_S7_S7_bRSt8ios_baseRiRT1_RbPT_                                                                                                                             
0000ab91  _ZNSt4priv14__money_do_putIcSt19ostreambuf_iteratorIcSt11char_traitsIcEESsNS_16__basic_iostringIcEEEET0_S7_bRSt8ios_baseT_RKT2_bPT1_                                                                                                                 
0000a4f5  _ZNSt4priv14__money_do_putIcSt19ostreambuf_iteratorIcSt11char_traitsIcEESsSsEET0_S5_bRSt8ios_baseT_RKT2_bPT1_                                                                                                                                        
000096d1  _ZNSt4priv14__money_do_putIwSt19ostreambuf_iteratorIwSt11char_traitsIwEESbIwS3_SaIwEENS_16__basic_iostringIwEEEET0_S9_bRSt8ios_baseT_RKT2_bPT1_                                                                                                      
00009de5  _ZNSt4priv14__money_do_putIwSt19ostreambuf_iteratorIwSt11char_traitsIwEESbIwS3_SaIwEES6_EET0_S7_bRSt8ios_baseT_RKT2_bPT1_                                                                                                                            
00002db9  _ZNSt4priv14__narrow_atomsEv                                                                                                                                                                                                                         
000062c5  _ZNSt4priv14__release_timeEP12_Locale_time                                                                                                                                                                                                           
00005d65  _ZNSt4priv15__acquire_ctypeERPKcPcP17_Locale_name_hintPi                                                                                                                                                                                             
00002b55  _ZNSt4priv15__release_ctypeEP13_Locale_ctype                                                                                                                                                                                                         
0001dd45  _ZNSt4priv15__ucopy_trivialEPKvS1_Pv                                                                                                                                                                                                                 
00001f29  _ZNSt4priv15__write_integerEPcil                                                                                                                                                                                                                     
00014e1d  _ZNSt4priv16__do_get_integerISt19istreambuf_iteratorIcSt11char_traitsIcEEjcEET_RS5_S6_RSt8ios_baseRiRT0_PT1_                                                                                                                                         
00014f0d  _ZNSt4priv16__do_get_integerISt19istreambuf_iteratorIcSt11char_traitsIcEElcEET_RS5_S6_RSt8ios_baseRiRT0_PT1_                                                                                                                                         
00014ffd  _ZNSt4priv16__do_get_integerISt19istreambuf_iteratorIcSt11char_traitsIcEEmcEET_RS5_S6_RSt8ios_baseRiRT0_PT1_                                                                                                                                         
000150ed  _ZNSt4priv16__do_get_integerISt19istreambuf_iteratorIcSt11char_traitsIcEEtcEET_RS5_S6_RSt8ios_baseRiRT0_PT1_                                                                                                                                         
00014a4d  _ZNSt4priv16__do_get_integerISt19istreambuf_iteratorIcSt11char_traitsIcEExcEET_RS5_S6_RSt8ios_baseRiRT0_PT1_                                                                                                                                         
00011af9  _ZNSt4priv16__do_get_integerISt19istreambuf_iteratorIcSt11char_traitsIcEEycEET_RS5_S6_RSt8ios_baseRiRT0_PT1_                                                                                                                                         
000151dd  _ZNSt4priv16__do_get_integerISt19istreambuf_iteratorIwSt11char_traitsIwEEjwEET_RS5_S6_RSt8ios_baseRiRT0_PT1_                                                                                                                                         
000152cd  _ZNSt4priv16__do_get_integerISt19istreambuf_iteratorIwSt11char_traitsIwEElwEET_RS5_S6_RSt8ios_baseRiRT0_PT1_                                                                                                                                         
000153bd  _ZNSt4priv16__do_get_integerISt19istreambuf_iteratorIwSt11char_traitsIwEEmwEET_RS5_S6_RSt8ios_baseRiRT0_PT1_                                                                                                                                         
000154ad  _ZNSt4priv16__do_get_integerISt19istreambuf_iteratorIwSt11char_traitsIwEEtwEET_RS5_S6_RSt8ios_baseRiRT0_PT1_                                                                                                                                         
00014b41  _ZNSt4priv16__do_get_integerISt19istreambuf_iteratorIwSt11char_traitsIwEExwEET_RS5_S6_RSt8ios_baseRiRT0_PT1_                                                                                                                                         
00011c55  _ZNSt4priv16__do_get_integerISt19istreambuf_iteratorIwSt11char_traitsIwEEywEET_RS5_S6_RSt8ios_baseRiRT0_PT1_                                                                                                                                         
0001c491  _ZNSt4priv16__do_put_integerIcSt19ostreambuf_iteratorIcSt11char_traitsIcEElEET0_S5_RSt8ios_baseT_T1_                                                                                                                                                 
0001c4e1  _ZNSt4priv16__do_put_integerIcSt19ostreambuf_iteratorIcSt11char_traitsIcEEmEET0_S5_RSt8ios_baseT_T1_                                                                                                                                                 
0001bf65  _ZNSt4priv16__do_put_integerIcSt19ostreambuf_iteratorIcSt11char_traitsIcEExEET0_S5_RSt8ios_baseT_T1_                                                                                                                                                 
0001bfb9  _ZNSt4priv16__do_put_integerIcSt19ostreambuf_iteratorIcSt11char_traitsIcEEyEET0_S5_RSt8ios_baseT_T1_                                                                                                                                                 
0001c531  _ZNSt4priv16__do_put_integerIwSt19ostreambuf_iteratorIwSt11char_traitsIwEElEET0_S5_RSt8ios_baseT_T1_                                                                                                                                                 
0001c581  _ZNSt4priv16__do_put_integerIwSt19ostreambuf_iteratorIwSt11char_traitsIwEEmEET0_S5_RSt8ios_baseT_T1_                                                                                                                                                 
0001c00d  _ZNSt4priv16__do_put_integerIwSt19ostreambuf_iteratorIwSt11char_traitsIwEExEET0_S5_RSt8ios_baseT_T1_                                                                                                                                                 
0001c061  _ZNSt4priv16__do_put_integerIwSt19ostreambuf_iteratorIwSt11char_traitsIwEEyEET0_S5_RSt8ios_baseT_T1_                                                                                                                                                 
0000168f  _ZNSt4priv16__valid_groupingEPKcS1_S1_S1_                                                                                                                                                                                                            
00001179  _ZNSt4priv16stdio_istreambuf5uflowEv                                                                                                                                                                                                                 
00001145  _ZNSt4priv16stdio_istreambuf9pbackfailEi                                                                                                                                                                                                             
000011af  _ZNSt4priv16stdio_istreambuf9showmanycEv                                                                                                                                                                                                             
0000118d  _ZNSt4priv16stdio_istreambuf9underflowEv                                                                                                                                                                                                             
000011b7  _ZNSt4priv16stdio_istreambufD0Ev                                                                                                                                                                                                                     
000011b3  _ZNSt4priv16stdio_istreambufD1Ev                                                                                                                                                                                                                     
000011b3  _ZNSt4priv16stdio_istreambufD2Ev                                                                                                                                                                                                                     
000010d1  _ZNSt4priv16stdio_ostreambuf8overflowEi                                                                                                                                                                                                              
00001111  _ZNSt4priv16stdio_ostreambuf9showmanycEv                                                                                                                                                                                                             
00001131  _ZNSt4priv16stdio_ostreambufD0Ev                                                                                                                                                                                                                     
0000112d  _ZNSt4priv16stdio_ostreambufD1Ev                                                                                                                                                                                                                     
0000112d  _ZNSt4priv16stdio_ostreambufD2Ev                                                                                                                                                                                                                     
0001e801  _ZNSt4priv17_STLP_alloc_proxyIPccSaIcEE8allocateEjRj                                                                                                                                                                                                 
0001e81d  _ZNSt4priv17_STLP_alloc_proxyIPccSaIcEE8allocateEjRjRKSt11__true_type                                                                                                                                                                                
0001e993  _ZNSt4priv17_STLP_alloc_proxyIPccSaIcEEC1ERKS2_S1_                                                                                                                                                                                                   
0001f327  _ZNSt4priv17_STLP_alloc_proxyIPccSaIcEED1Ev                                                                                                                                                                                                          
00005edd  _ZNSt4priv17__acquire_codecvtERPKcPcP17_Locale_name_hintPi                                                                                                                                                                                           
00006455  _ZNSt4priv17__acquire_collateERPKcPcP17_Locale_name_hintPi                                                                                                                                                                                           
00006071  _ZNSt4priv17__acquire_numericERPKcPcP17_Locale_name_hintPi                                                                                                                                                                                           
00001689  _ZNSt4priv17__digit_val_tableEj                                                                                                                                                                                                                      
00002dbd  _ZNSt4priv17__insert_groupingEPcS0_RKSsccci                                                                                                                                                                                                          
00002ef5  _ZNSt4priv17__insert_groupingEPwS0_RKSswwwi                                                                                                                                                                                                          
000017d3  _ZNSt4priv17__insert_groupingERNS_16__basic_iostringIcEEjRKSsccci                                                                                                                                                                                    
0000158b  _ZNSt4priv17__insert_groupingERNS_16__basic_iostringIwEEjRKSswwwi                                                                                                                                                                                    
00002893  _ZNSt4priv17__release_codecvtEP15_Locale_codecvt                                                                                                                                                                                                     
00002485  _ZNSt4priv17__release_collateEP15_Locale_collate                                                                                                                                                                                                     
000021f1  _ZNSt4priv17__release_numericEP15_Locale_numeric                                                                                                                                                                                                     
00001651  _ZNSt4priv17__string_to_floatERKNS_16__basic_iostringIcEERd                                                                                                                                                                                          
0000188b  _ZNSt4priv17__string_to_floatERKNS_16__basic_iostringIcEERe                                                                                                                                                                                          
00001669  _ZNSt4priv17__string_to_floatERKNS_16__basic_iostringIcEERf                                                                                                                                                                                          
00006ac5  _ZNSt4priv18__acquire_messagesERPKcPcP17_Locale_name_hintPi                                                                                                                                                                                          
000065a1  _ZNSt4priv18__acquire_monetaryERPKcPcP17_Locale_name_hintPi                                                                                                                                                                                          
00012429  _ZNSt4priv18__do_get_alphaboolISt19istreambuf_iteratorIcSt11char_traitsIcEEcEET_RS5_S6_RSt8ios_baseRiRbPT0_                                                                                                                                          
00012065  _ZNSt4priv18__do_get_alphaboolISt19istreambuf_iteratorIwSt11char_traitsIwEEwEET_RS5_S6_RSt8ios_baseRiRbPT0_                                                                                                                                          
00012a35  _ZNSt4priv18__get_base_or_zeroISt19istreambuf_iteratorIcSt11char_traitsIcEEcEEiRT_S6_iRKSt5ctypeIT0_E                                                                                                                                                
00012b63  _ZNSt4priv18__get_base_or_zeroISt19istreambuf_iteratorIwSt11char_traitsIwEEwEEiRT_S6_iRKSt5ctypeIT0_E                                                                                                                                                
000016c7  _ZNSt4priv18__get_floor_digitsERNS_16__basic_iostringIcEEe                                                                                                                                                                                           
00018ab1  _ZNSt4priv18__get_money_digitsIwEEvRNS_16__basic_iostringIT_EERSt8ios_basee                                                                                                                                                                          
00002d45  _ZNSt4priv18__release_messagesEP16_Locale_messages                                                                                                                                                                                                   
00001c39  _ZNSt4priv18__release_monetaryEP16_Locale_monetary                                                                                                                                                                                                   
000018a3  _ZNSt4priv19_Catalog_locale_map5eraseEi                                                                                                                                                                                                              
00001a27  _ZNSt4priv19_Catalog_locale_map6insertEiRKSt6locale                                                                                                                                                                                                  
00002ed3  _ZNSt4priv19__get_fdigit_or_sepERwwPKw                                                                                                                                                                                                               
000012bf  _ZNSt4priv19__hex_char_table_hiEv                                                                                                                                                                                                                    
000012bb  _ZNSt4priv19__hex_char_table_loEv                                                                                                                                                                                                                    
0001ee8b  _ZNSt4priv20_Scan_for_not_wspaceISt11char_traitsIcEEC1EPKSt5ctypeIcE                                                                                                                                                                                 
0000e3e9  _ZNSt4priv20__get_formatted_timeISt19istreambuf_iteratorIcSt11char_traitsIcEEcNS_10_Time_InfoEEEPKcT_S8_S7_S7_PT0_RKT1_RKSt8ios_baseRiPSt2tm                                                                                                         
0000e631  _ZNSt4priv20__get_formatted_timeISt19istreambuf_iteratorIwSt11char_traitsIwEEwNS_11_WTime_InfoEEEPKcT_S8_S7_S7_PT0_RKT1_RKSt8ios_baseRiPSt2tm                                                                                                        
0000df19  _ZNSt4priv20__get_monetary_valueISt19istreambuf_iteratorIcSt11char_traitsIcEESt20back_insert_iteratorISsEcEEbRT_S7_T0_RKSt5ctypeIT1_ESB_iSB_RKSsRb                                                                                                   
0000e181  _ZNSt4priv20__get_monetary_valueISt19istreambuf_iteratorIwSt11char_traitsIwEESt20back_insert_iteratorISbIwS3_SaIwEEEwEEbRT_S9_T0_RKSt5ctypeIT1_ESD_iSD_RKSsRb                                                                                        
000011c5  _ZNSt4priv20stdio_streambuf_base4syncEv                                                                                                                                                                                                              
00001281  _ZNSt4priv20stdio_streambuf_base6setbufEPci                                                                                                                                                                                                          
0000121b  _ZNSt4priv20stdio_streambuf_base7seekoffElii                                                                                                                                                                                                         
000011d9  _ZNSt4priv20stdio_streambuf_base7seekposESt4fposIiEi                                                                                                                                                                                                 
00000b73  _ZNSt4priv20stdio_streambuf_baseC1EPSt4FILE                                                                                                                                                                                                          
00000b73  _ZNSt4priv20stdio_streambuf_baseC2EPSt4FILE                                                                                                                                                                                                          
0000129b  _ZNSt4priv20stdio_streambuf_baseD0Ev                                                                                                                                                                                                                 
00001117  _ZNSt4priv20stdio_streambuf_baseD1Ev                                                                                                                                                                                                                 
00001117  _ZNSt4priv20stdio_streambuf_baseD2Ev                                                                                                                                                                                                                 
00002e55  _ZNSt4priv21_Initialize_get_floatERKSt5ctypeIwERwS4_S4_S4_Pw                                                                                                                                                                                         
00007361  _ZNSt4priv21__adjust_float_bufferERNS_16__basic_iostringIcEEc                                                                                                                                                                                        
0000f755  _ZNSt4priv21__copy_float_and_fillIcSt19ostreambuf_iteratorIcSt11char_traitsIcEEEET0_PKT_S8_S5_iiS6_S6_S6_                                                                                                                                            
0000f54f  _ZNSt4priv21__copy_float_and_fillIwSt19ostreambuf_iteratorIwSt11char_traitsIwEEEET0_PKT_S8_S5_iiS6_S6_S6_                                                                                                                                            
0001667f  _ZNSt4priv21__copy_grouped_digitsISt19istreambuf_iteratorIcSt11char_traitsIcEEcEEbRT_S5_RNS_16__basic_iostringIcEEPKT0_SA_RKSsRb                                                                                                                     
0001594d  _ZNSt4priv21__copy_grouped_digitsISt19istreambuf_iteratorIwSt11char_traitsIwEEwEEbRT_S5_RNS_16__basic_iostringIcEEPKT0_SA_RKSsRb                                                                                                                     
0001c2a7  _ZNSt4priv21__get_decimal_integerIPcecEEbRT_S3_RT0_PT1_                                                                                                                                                                                              
0001c2f9  _ZNSt4priv21__get_decimal_integerIPwewEEbRT_S3_RT0_PT1_                                                                                                                                                                                              
0001c34b  _ZNSt4priv21__get_decimal_integerISt19istreambuf_iteratorIcSt11char_traitsIcEEicEEbRT_S6_RT0_PT1_                                                                                                                                                    
0001c39d  _ZNSt4priv21__get_decimal_integerISt19istreambuf_iteratorIwSt11char_traitsIwEEiwEEbRT_S6_RT0_PT1_                                                                                                                                                    
000013ed  _ZNSt4priv22__convert_float_bufferERKNS_16__basic_iostringIcEERNS0_IwEERKSt5ctypeIwEwb                                                                                                                                                               
0001dec7  _ZNSt4priv22__uninitialized_fill_nIPcjcEET_S2_T0_RKT1_                                                                                                                                                                                               
0000206d  _ZNSt4priv22__write_formatted_timeERNS_16__basic_iostringIcEERKSt5ctypeIcEccRKNS_10_Time_InfoEPKSt2tm                                                                                                                                                
00001f75  _ZNSt4priv22__write_formatted_timeERNS_16__basic_iostringIwEERKSt5ctypeIwEccRKNS_11_WTime_InfoEPKSt2tm                                                                                                                                               
0000d717  _ZNSt4priv23__copy_integer_and_fillIcSt19ostreambuf_iteratorIcSt11char_traitsIcEEEET0_PKT_iS5_iiS6_S6_S6_                                                                                                                                            
0000d451  _ZNSt4priv23__copy_integer_and_fillIwSt19ostreambuf_iteratorIwSt11char_traitsIwEEEET0_PKT_iS5_iiS6_S6_S6_                                                                                                                                            
0000d9c9  _ZNSt4priv23__write_formatted_timeTIcNS_10_Time_InfoEEEvRNS_16__basic_iostringIT_EERKSt5ctypeIS3_EccRKT0_PKSt2tm                                                                                                                                     
0000dc71  _ZNSt4priv23__write_formatted_timeTIwNS_11_WTime_InfoEEEvRNS_16__basic_iostringIT_EERKSt5ctypeIS3_EccRKT0_PKSt2tm                                                                                                                                    
00013263  _ZNSt4priv24__write_integer_backwardIlEEPcS1_iT_                                                                                                                                                                                                     
00017b5f  _ZNSt4priv24__write_integer_backwardImEEPcS1_iT_                                                                                                                                                                                                     
00014665  _ZNSt4priv24__write_integer_backwardIxEEPcS1_iT_                                                                                                                                                                                                     
00016f9d  _ZNSt4priv24__write_integer_backwardIyEEPcS1_iT_                                                                                                                                                                                                     
0001e165  _ZNSt4priv27__get_short_or_long_daynameISt19istreambuf_iteratorIwSt11char_traitsIwEENS_11_WTime_InfoEEEbRT_S7_RKT0_PSt2tm                                                                                                                            
0001e18b  _ZNSt4priv29__get_short_or_long_monthnameISt19istreambuf_iteratorIwSt11char_traitsIwEENS_11_WTime_InfoEEEbRT_S7_RKT0_PSt2tm                                                                                                                          
00010ee7  _ZNSt4priv6__lessIjEENS_8_ti_lessIT_EEPS2_                                                                                                                                                                                                           
00015dcd  _ZNSt4priv7__matchISt19istreambuf_iteratorIcSt11char_traitsIcEEPKSsEEjRT_S8_T0_S9_                                                                                                                                                                   
00015eb1  _ZNSt4priv7__matchISt19istreambuf_iteratorIwSt11char_traitsIwEEPKSbIwS3_SaIwEEEEjRT_SA_T0_SB_                                                                                                                                                        
0001e481  _ZNSt4priv7__ucopyIPKcPcEET0_T_S5_S4_                                                                                                                                                                                                                
0001caab  _ZNSt4priv7__ucopyIPKcPciEET0_T_S5_S4_RKSt26random_access_iterator_tagPT1_                                                                                                                                                                           
0001e4a1  _ZNSt4priv7__ucopyIPcS1_EET0_T_S3_S2_                                                                                                                                                                                                                
0001caf1  _ZNSt4priv7__ucopyIPcS1_iEET0_T_S3_S2_RKSt26random_access_iterator_tagPT1_                                                                                                                                                                           
0001cf13  _ZNSt4priv7__ufillIPcciEEvT_S2_RKT0_RKSt26random_access_iterator_tagPT1_                                                                                                                                                                             
00006aed  _ZNSt4priv9_MessagesC1EbP16_Locale_messages                                                                                                                                                                                                          
0000731d  _ZNSt4priv9_MessagesC1EbPKc                                                                                                                                                                                                                          
00006aed  _ZNSt4priv9_MessagesC2EbP16_Locale_messages                                                                                                                                                                                                          
0000731d  _ZNSt4priv9_MessagesC2EbPKc                                                                                                                                                                                                                          
00002d5b  _ZNSt4priv9_MessagesD1Ev                                                                                                                                                                                                                             
00002d5b  _ZNSt4priv9_MessagesD2Ev                                                                                                                                                                                                                             
0001ecff  _ZNSt4priv9_UseFacetISt5ctypeIcEEEPT_RKSt6localePKS3_                                                                                                                                                                                                
0001ed15  _ZNSt4priv9_UseFacetISt7num_putIcSt19ostreambuf_iteratorIcSt11char_traitsIcEEEEEPT_RKSt6localePKS7_                                                                                                                                                  
00014565  _ZNSt4priv9__put_numIcSt11char_traitsIcElEERSt13basic_ostreamIT_T0_ES7_T1_                                                                                                                                                                           
00004341  _ZNSt4priv9time_initIcEC1EP12_Locale_time                                                                                                                                                                                                            
00007243  _ZNSt4priv9time_initIcEC1EPKc                                                                                                                                                                                                                        
00000429  _ZNSt4priv9time_initIcEC1Ev                                                                                                                                                                                                                          
00004341  _ZNSt4priv9time_initIcEC2EP12_Locale_time                                                                                                                                                                                                            
00007243  _ZNSt4priv9time_initIcEC2EPKc                                                                                                                                                                                                                        
00000429  _ZNSt4priv9time_initIcEC2Ev                                                                                                                                                                                                                          
00004171  _ZNSt4priv9time_initIwEC1EP12_Locale_time                                                                                                                                                                                                            
0000716d  _ZNSt4priv9time_initIwEC1EPKc                                                                                                                                                                                                                        
000005a5  _ZNSt4priv9time_initIwEC1Ev                                                                                                                                                                                                                          
00004171  _ZNSt4priv9time_initIwEC2EP12_Locale_time                                                                                                                                                                                                            
0000716d  _ZNSt4priv9time_initIwEC2EPKc                                                                                                                                                                                                                        
000005a5  _ZNSt4priv9time_initIwEC2Ev                                                                                                                                                                                                                          
0000cd41  _ZNSt5ctypeIcE13classic_tableEv                                                                                                                                                                                                                      
20010a0c  _ZNSt5ctypeIcE2idE                                                                                                                                                                                                                                   
0000cd45  _ZNSt5ctypeIcEC1EPKNSt10ctype_base4maskEbj                                                                                                                                                                                                           
0000cd45  _ZNSt5ctypeIcEC2EPKNSt10ctype_base4maskEbj                                                                                                                                                                                                           
0000cd25  _ZNSt5ctypeIcED0Ev                                                                                                                                                                                                                                   
0000cd0f  _ZNSt5ctypeIcED1Ev                                                                                                                                                                                                                                   
0000cd0f  _ZNSt5ctypeIcED2Ev                                                                                                                                                                                                                                   
20010a10  _ZNSt5ctypeIwE2idE                                                                                                                                                                                                                                   
0000cd01  _ZNSt5ctypeIwED0Ev                                                                                                                                                                                                                                   
0000ccfd  _ZNSt5ctypeIwED1Ev                                                                                                                                                                                                                                   
0000ccfd  _ZNSt5ctypeIwED2Ev                                                                                                                                                                                                                                   
0001f4e5  _ZNSt6_IsPODIcE7_AnswerEv                                                                                                                                                                                                                            
00005c2f  _ZNSt6locale21_M_throw_on_null_nameEv                                                                                                                                                                                                                
0000710b  _ZNSt6locale25_M_throw_on_combine_errorERKSs                                                                                                                                                                                                         
00005dbd  _ZNSt6locale28_M_throw_on_creation_failureEiPKcS1_                                                                                                                                                                                                   
20010a08  _ZNSt6locale2id6_S_maxE                                                                                                                                                                                                                              
00002c35  _ZNSt6locale5facetD0Ev                                                                                                                                                                                                                               
0000164f  _ZNSt6locale5facetD1Ev                                                                                                                                                                                                                               
0000164f  _ZNSt6locale5facetD2Ev                                                                                                                                                                                                                               
00007059  _ZNSt6locale6globalERKS_                                                                                                                                                                                                                             
000018c3  _ZNSt6locale7classicEv                                                                                                                                                                                                                               
00007003  _ZNSt6locale9_M_insertEPNS_5facetERNS_2idE                                                                                                                                                                                                           
00006ee5  _ZNSt6localeC1EPKc                                                                                                                                                                                                                                   
00000641  _ZNSt6localeC1EPSt12_Locale_impl                                                                                                                                                                                                                     
000012a9  _ZNSt6localeC1ERKS_                                                                                                                                                                                                                                  
00006d59  _ZNSt6localeC1ERKS_PKci                                                                                                                                                                                                                              
000059ef  _ZNSt6localeC1ERKS_S1_i                                                                                                                                                                                                                              
00000b5d  _ZNSt6localeC1Ev                                                                                                                                                                                                                                     
00006ee5  _ZNSt6localeC2EPKc                                                                                                                                                                                                                                   
00000641  _ZNSt6localeC2EPSt12_Locale_impl                                                                                                                                                                                                                     
000012a9  _ZNSt6localeC2ERKS_                                                                                                                                                                                                                                  
00006d59  _ZNSt6localeC2ERKS_PKci                                                                                                                                                                                                                              
000059ef  _ZNSt6localeC2ERKS_S1_i                                                                                                                                                                                                                              
00000b5d  _ZNSt6localeC2Ev                                                                                                                                                                                                                                     
000032c9  _ZNSt6localeD1Ev                                                                                                                                                                                                                                     
000032c9  _ZNSt6localeD2Ev                                                                                                                                                                                                                                     
0000374f  _ZNSt6localeaSERKS_                                                                                                                                                                                                                                  
00017851  _ZNSt6vectorIPNSt4priv16_Slist_node_baseESaIS2_EE14_M_fill_assignEjRKS2_                                                                                                                                                                             
000185c5  _ZNSt6vectorIPNSt4priv16_Slist_node_baseESaIS2_EE7reserveEj                                                                                                                                                                                          
00017789  _ZNSt6vectorIPNSt6locale5facetESaIS2_EE14_M_fill_insertEPS2_jRKS2_                                                                                                                                                                                   
00016df5  _ZNSt6vectorIPNSt6locale5facetESaIS2_EE18_M_fill_insert_auxEPS2_jRKS2_RKSt12__false_type                                                                                                                                                             
000188e1  _ZNSt6vectorIPNSt6locale5facetESaIS2_EE7reserveEj                                                                                                                                                                                                    
0001f5c5  _ZNSt6vectorIPNSt6locale5facetESaIS2_EE8_M_clearEv                                                                                                                                                                                                   
000175f9  _ZNSt6vectorIPNSt6locale5facetESaIS2_EEaSERKS4_                                                                                                                                                                                                      
20010a14  _ZNSt7codecvtIcciE2idE                                                                                                                                                                                                                               
000029cb  _ZNSt7codecvtIcciED0Ev                                                                                                                                                                                                                               
000029d3  _ZNSt7codecvtIcciED1Ev                                                                                                                                                                                                                               
000029d3  _ZNSt7codecvtIcciED2Ev                                                                                                                                                                                                                               
20010a18  _ZNSt7codecvtIwciE2idE                                                                                                                                                                                                                               
0000297d  _ZNSt7codecvtIwciED0Ev                                                                                                                                                                                                                               
00002985  _ZNSt7codecvtIwciED1Ev                                                                                                                                                                                                                               
00002985  _ZNSt7codecvtIwciED2Ev                                                                                                                                                                                                                               
20010a1c  _ZNSt7collateIcE2idE                                                                                                                                                                                                                                 
00002747  _ZNSt7collateIcED0Ev                                                                                                                                                                                                                                 
0000274f  _ZNSt7collateIcED1Ev                                                                                                                                                                                                                                 
0000274f  _ZNSt7collateIcED2Ev                                                                                                                                                                                                                                 
20010a20  _ZNSt7collateIwE2idE                                                                                                                                                                                                                                 
000026bd  _ZNSt7collateIwED0Ev                                                                                                                                                                                                                                 
000026c5  _ZNSt7collateIwED1Ev                                                                                                                                                                                                                                 
000026c5  _ZNSt7collateIwED2Ev                                                                                                                                                                                                                                 
200119f0  _ZNSt7num_getIcSt19istreambuf_iteratorIcSt11char_traitsIcEEE2idE                                                                                                                                                                                     
0001f5cf  _ZNSt7num_getIcSt19istreambuf_iteratorIcSt11char_traitsIcEEED0Ev                                                                                                                                                                                     
000122eb  _ZNSt7num_getIcSt19istreambuf_iteratorIcSt11char_traitsIcEEED1Ev                                                                                                                                                                                     
200119f4  _ZNSt7num_getIwSt19istreambuf_iteratorIwSt11char_traitsIwEEE2idE                                                                                                                                                                                     
0001f5d7  _ZNSt7num_getIwSt19istreambuf_iteratorIwSt11char_traitsIwEEED0Ev                                                                                                                                                                                     
000137e7  _ZNSt7num_getIwSt19istreambuf_iteratorIwSt11char_traitsIwEEED1Ev                                                                                                                                                                                     
200119f8  _ZNSt7num_putIcSt19ostreambuf_iteratorIcSt11char_traitsIcEEE2idE                                                                                                                                                                                     
0001f5df  _ZNSt7num_putIcSt19ostreambuf_iteratorIcSt11char_traitsIcEEED0Ev                                                                                                                                                                                     
00015c03  _ZNSt7num_putIcSt19ostreambuf_iteratorIcSt11char_traitsIcEEED1Ev                                                                                                                                                                                     
200119fc  _ZNSt7num_putIwSt19ostreambuf_iteratorIwSt11char_traitsIwEEE2idE                                                                                                                                                                                     
0001f5e7  _ZNSt7num_putIwSt19ostreambuf_iteratorIwSt11char_traitsIwEEED0Ev                                                                                                                                                                                     
00016077  _ZNSt7num_putIwSt19ostreambuf_iteratorIwSt11char_traitsIwEEED1Ev                                                                                                                                                                                     
200109f0  _ZNSt8ios_base12_S_is_syncedE                                                                                                                                                                                                                        
000047c1  _ZNSt8ios_base13_M_copy_stateERKS_                                                                                                                                                                                                                   
00003811  _ZNSt8ios_base13_S_initializeEv                                                                                                                                                                                                                      
000032ed  _ZNSt8ios_base15_S_uninitializeEv                                                                                                                                                                                                                    
000045c5  _ZNSt8ios_base15sync_with_stdioEb                                                                                                                                                                                                                    
0001ef99  _ZNSt8ios_base16_M_clear_nothrowEi                                                                                                                                                                                                                   
00000b89  _ZNSt8ios_base16_M_throw_failureEv                                                                                                                                                                                                                   
00004571  _ZNSt8ios_base17register_callbackEPFvNS_5eventERS_iEi                                                                                                                                                                                                
00003155  _ZNSt8ios_base19_M_invoke_callbacksENS_5eventE                                                                                                                                                                                                       
0001efab  _ZNSt8ios_base21_M_set_exception_maskEi                                                                                                                                                                                                              
0001eb25  _ZNSt8ios_base23_M_check_exception_maskEv                                                                                                                                                                                                            
20010a24  _ZNSt8ios_base4Init8_S_countE                                                                                                                                                                                                                        
00003a2f  _ZNSt8ios_base4InitC1Ev                                                                                                                                                                                                                              
00003a2f  _ZNSt8ios_base4InitC2Ev                                                                                                                                                                                                                              
0000355b  _ZNSt8ios_base4InitD1Ev                                                                                                                                                                                                                              
0000355b  _ZNSt8ios_base4InitD2Ev                                                                                                                                                                                                                              
0001e9ad  _ZNSt8ios_base5flagsEi                                                                                                                                                                                                                               
00003771  _ZNSt8ios_base5imbueERKSt6locale                                                                                                                                                                                                                     
000044bb  _ZNSt8ios_base5iwordEi                                                                                                                                                                                                                               
00004437  _ZNSt8ios_base5pwordEi                                                                                                                                                                                                                               
0001e9c7  _ZNSt8ios_base5widthEi                                                                                                                                                                                                                               
000043e1  _ZNSt8ios_base6xallocEv                                                                                                                                                                                                                              
0001e9e1  _ZNSt8ios_base9precisionEi                                                                                                                                                                                                                           
00003659  _ZNSt8ios_baseC1Ev                                                                                                                                                                                                                                   
00003659  _ZNSt8ios_baseC2Ev                                                                                                                                                                                                                                   
00002325  _ZNSt8ios_baseD0Ev                                                                                                                                                                                                                                   
00003181  _ZNSt8ios_baseD1Ev                                                                                                                                                                                                                                   
00003181  _ZNSt8ios_baseD2Ev                                                                                                                                                                                                                                   
20010a40  _ZNSt8messagesIcE2idE                                                                                                                                                                                                                                
00000389  _ZNSt8messagesIcEC1Ej                                                                                                                                                                                                                                
00000389  _ZNSt8messagesIcEC2Ej                                                                                                                                                                                                                                
0001f5ef  _ZNSt8messagesIcED0Ev                                                                                                                                                                                                                                
000175f7  _ZNSt8messagesIcED1Ev                                                                                                                                                                                                                                
20010a44  _ZNSt8messagesIwE2idE                                                                                                                                                                                                                                
00000509  _ZNSt8messagesIwEC1Ej                                                                                                                                                                                                                                
00000509  _ZNSt8messagesIwEC2Ej                                                                                                                                                                                                                                
0001f5f7  _ZNSt8messagesIwED0Ev                                                                                                                                                                                                                                
0001784f  _ZNSt8messagesIwED1Ev                                                                                                                                                                                                                                
20010a28  _ZNSt8numpunctIcE2idE                                                                                                                                                                                                                                
0000231b  _ZNSt8numpunctIcED0Ev                                                                                                                                                                                                                                
00002323  _ZNSt8numpunctIcED1Ev                                                                                                                                                                                                                                
00002323  _ZNSt8numpunctIcED2Ev                                                                                                                                                                                                                                
20010a2c  _ZNSt8numpunctIwE2idE                                                                                                                                                                                                                                
000022db  _ZNSt8numpunctIwED0Ev                                                                                                                                                                                                                                
000022e3  _ZNSt8numpunctIwED1Ev                                                                                                                                                                                                                                
000022e3  _ZNSt8numpunctIwED2Ev                                                                                                                                                                                                                                
20011a00  _ZNSt8time_getIcSt19istreambuf_iteratorIcSt11char_traitsIcEEE2idE                                                                                                                                                                                    
0001911d  _ZNSt8time_getIcSt19istreambuf_iteratorIcSt11char_traitsIcEEED0Ev                                                                                                                                                                                    
0001998d  _ZNSt8time_getIcSt19istreambuf_iteratorIcSt11char_traitsIcEEED1Ev                                                                                                                                                                                    
20011a04  _ZNSt8time_getIwSt19istreambuf_iteratorIwSt11char_traitsIwEEE2idE                                                                                                                                                                                    
000191b1  _ZNSt8time_getIwSt19istreambuf_iteratorIwSt11char_traitsIwEEED0Ev                                                                                                                                                                                    
00019a19  _ZNSt8time_getIwSt19istreambuf_iteratorIwSt11char_traitsIwEEED1Ev                                                                                                                                                                                    
20011a08  _ZNSt8time_putIcSt19ostreambuf_iteratorIcSt11char_traitsIcEEE2idE                                                                                                                                                                                    
00019245  _ZNSt8time_putIcSt19ostreambuf_iteratorIcSt11char_traitsIcEEED0Ev                                                                                                                                                                                    
00019aa5  _ZNSt8time_putIcSt19ostreambuf_iteratorIcSt11char_traitsIcEEED1Ev                                                                                                                                                                                    
20011a0c  _ZNSt8time_putIwSt19ostreambuf_iteratorIwSt11char_traitsIwEEE2idE                                                                                                                                                                                    
000192d9  _ZNSt8time_putIwSt19ostreambuf_iteratorIwSt11char_traitsIwEEED0Ev                                                                                                                                                                                    
00019b31  _ZNSt8time_putIwSt19ostreambuf_iteratorIwSt11char_traitsIwEEED1Ev                                                                                                                                                                                    
0001e9fb  _ZNSt9basic_iosIcSt11char_traitsIcEE3tieEPSo                                                                                                                                                                                                         
0001e1b1  _ZNSt9basic_iosIcSt11char_traitsIcEE4fillEc                                                                                                                                                                                                          
0001a4e5  _ZNSt9basic_iosIcSt11char_traitsIcEE4initEPSt15basic_streambufIcS1_E                                                                                                                                                                                 
0001e1d7  _ZNSt9basic_iosIcSt11char_traitsIcEE5clearEi                                                                                                                                                                                                         
0001c61d  _ZNSt9basic_iosIcSt11char_traitsIcEE5imbueERKSt6locale                                                                                                                                                                                               
0001e615  _ZNSt9basic_iosIcSt11char_traitsIcEE5rdbufEPSt15basic_streambufIcS1_E                                                                                                                                                                                
0001ee9f  _ZNSt9basic_iosIcSt11char_traitsIcEE6_S_eofEi                                                                                                                                                                                                        
0001eb3d  _ZNSt9basic_iosIcSt11char_traitsIcEE8setstateEi                                                                                                                                                                                                      
0001dd71  _ZNSt9basic_iosIcSt11char_traitsIcEEC1Ev                                                                                                                                                                                                             
0001f4f1  _ZNSt9basic_iosIcSt11char_traitsIcEEC2Ev                                                                                                                                                                                                             
0001ed2b  _ZNSt9basic_iosIcSt11char_traitsIcEED0Ev                                                                                                                                                                                                             
0001f335  _ZNSt9basic_iosIcSt11char_traitsIcEED1Ev                                                                                                                                                                                                             
0001f4fd  _ZNSt9basic_iosIcSt11char_traitsIcEED2Ev                                                                                                                                                                                                             
0001c3ef  _ZNSt9basic_iosIwSt11char_traitsIwEE4initEPSt15basic_streambufIwS1_E                                                                                                                                                                                 
0001ce55  _ZNSt9basic_iosIwSt11char_traitsIwEE5imbueERKSt6locale                                                                                                                                                                                               
0001e633  _ZNSt9basic_iosIwSt11char_traitsIwEE5rdbufEPSt15basic_streambufIwS1_E                                                                                                                                                                                
